******************************************************************************
                  TI ARM Linker PC v20.2.7                     
******************************************************************************
>> Linked Tue Jan 24 17:25:16 2023

OUTPUT FILE NAME:   <display_CC1350_LAUNCHXL_tirtos_ccs.out>
ENTRY POINT SYMBOL: "ResetISR"  address: 00004919


MEMORY CONFIGURATION

         name            origin    length      used     unused   attr    fill
----------------------  --------  ---------  --------  --------  ----  --------
  FLASH                 00000000   00020000  0000632a  00019cd6  R  X
  SRAM                  20000000   00005000  00003e07  000011f9  RW X


SEGMENT ALLOCATION MAP

run origin  load origin   length   init length attrs members
----------  ----------- ---------- ----------- ----- -------
00000000    00000000    000062d8   000062d8    r-x
  00000000    00000000    0000003c   0000003c    r-- .resetVecs
  0000003c    0000003c    00000fc4   00000fc4    r-x .text.1
  00001000    00001000    0000003c   0000003c    r-- .const:ti_sysbios_knl_Task_Object__PARAMS__C
  0000103c    0000103c    00000034   00000034    r-- .const:ti_sysbios_knl_Mailbox_Object__PARAMS__C
  00001070    00001070    00000030   00000030    r-- .const:ti_sysbios_family_arm_m3_Hwi_Object__PARAMS__C
  000010a0    000010a0    0000002c   0000002c    r-- .const:ti_sysbios_hal_Hwi_Object__PARAMS__C
  000010cc    000010cc    00000028   00000028    r-- .const:ti_sysbios_heaps_HeapMem_Module__FXNS__C
  000010f4    000010f4    00000028   00000028    r-- .const:ti_sysbios_knl_Swi_Object__PARAMS__C
  0000111c    0000111c    00000024   00000024    r-- .const:ti_sysbios_gates_GateHwi_Module__FXNS__C
  00001140    00001140    00000024   00000024    r-- .const:ti_sysbios_gates_GateMutex_Module__FXNS__C
  00001164    00001164    00000024   00000024    r-- .const:ti_sysbios_heaps_HeapMem_Object__PARAMS__C
  00001188    00001188    00000024   00000024    r-- .const:ti_sysbios_knl_Clock_Object__PARAMS__C
  000011ac    000011ac    00000024   00000024    r-- .const:ti_sysbios_knl_Semaphore_Object__PARAMS__C
  000011d0    000011d0    00000020   00000020    r-- .const:ti_sysbios_family_arm_m3_Hwi_Object__DESC__C
  000011f0    000011f0    00000020   00000020    r-- .const:ti_sysbios_gates_GateHwi_Object__DESC__C
  00001210    00001210    00000020   00000020    r-- .const:ti_sysbios_gates_GateMutex_Object__DESC__C
  00001230    00001230    00000020   00000020    r-- .const:ti_sysbios_hal_Hwi_Object__DESC__C
  00001250    00001250    00000020   00000020    r-- .const:ti_sysbios_heaps_HeapMem_Object__DESC__C
  00001270    00001270    00000020   00000020    r-- .const:ti_sysbios_knl_Clock_Object__DESC__C
  00001290    00001290    00000020   00000020    r-- .const:ti_sysbios_knl_Mailbox_Object__DESC__C
  000012b0    000012b0    00000020   00000020    r-- .const:ti_sysbios_knl_Queue_Object__DESC__C
  000012d0    000012d0    00000020   00000020    r-- .const:ti_sysbios_knl_Semaphore_Object__DESC__C
  000012f0    000012f0    00000020   00000020    r-- .const:ti_sysbios_knl_Swi_Object__DESC__C
  00001310    00001310    00000020   00000020    r-- .const:ti_sysbios_knl_Task_Object__DESC__C
  00001330    00001330    00000018   00000018    r-- .const:ti_sysbios_gates_GateHwi_Object__PARAMS__C
  00001348    00001348    00000018   00000018    r-- .const:ti_sysbios_gates_GateMutex_Object__PARAMS__C
  00001360    00001360    00000018   00000018    r-- .const:ti_sysbios_knl_Queue_Object__PARAMS__C
  00001378    00001378    00000008   00000008    r-- .const:ti_sysbios_knl_Idle_funcList__C
  00001380    00001380    00000004   00000004    r-x .text.2
  00001384    00001384    00000004   00000004    r-- .const:ti_sysbios_family_arm_cc26xx_Timer_startupNeeded__C
  00001388    00001388    00000004   00000004    r-- .const:ti_sysbios_family_arm_m3_Hwi_E_alreadyDefined__C
  0000138c    0000138c    00000004   00000004    r-- .const:ti_sysbios_family_arm_m3_Hwi_E_hwiLimitExceeded__C
  00001390    00001390    00000004   00000004    r-- .const:ti_sysbios_family_arm_m3_Hwi_NUM_INTERRUPTS__C
  00001394    00001394    00000004   00000004    r-- .const:ti_sysbios_family_arm_m3_Hwi_Object__count__C
  00001398    00001398    00000004   00000004    r-- .const:ti_sysbios_family_arm_m3_Hwi_Object__table__C
  0000139c    0000139c    00000004   00000004    r-- .const:ti_sysbios_family_arm_m3_Hwi_ccr__C
  000013a0    000013a0    00000004   00000004    r-- .const:ti_sysbios_family_arm_m3_Hwi_excHandlerFunc__C
  000013a4    000013a4    00000004   00000004    r-- .const:ti_sysbios_family_arm_m3_Hwi_nullIsrFunc__C
  000013a8    000013a8    00000004   00000004    r-- .const:ti_sysbios_family_arm_m3_Hwi_numSparseInterrupts__C
  000013ac    000013ac    00000004   00000004    r-- .const:ti_sysbios_family_arm_m3_Hwi_priGroup__C
  000013b0    000013b0    00000004   00000004    r-- .const:ti_sysbios_family_arm_m3_TaskSupport_stackAlignment__C
  000013b4    000013b4    00000004   00000004    r-- .const:ti_sysbios_heaps_HeapMem_E_memory__C
  000013b8    000013b8    00000004   00000004    r-- .const:ti_sysbios_heaps_HeapMem_Module__gateObj__C
  000013bc    000013bc    00000004   00000004    r-- .const:ti_sysbios_heaps_HeapMem_Object__count__C
  000013c0    000013c0    00000004   00000004    r-- .const:ti_sysbios_heaps_HeapMem_Object__table__C
  000013c4    000013c4    00000004   00000004    r-- .const:ti_sysbios_heaps_HeapMem_reqAlign__C
  000013c8    000013c8    00000004   00000004    r-- .const:ti_sysbios_knl_Clock_serviceMargin__C
  000013cc    000013cc    00000004   00000004    r-- .const:ti_sysbios_knl_Mailbox_Object__count__C
  000013d0    000013d0    00000004   00000004    r-- .const:ti_sysbios_knl_Mailbox_Object__table__C
  000013d4    000013d4    00000004   00000004    r-- .const:ti_sysbios_knl_Mailbox_maxTypeAlign__C
  000013d8    000013d8    00000004   00000004    r-- .const:ti_sysbios_knl_Queue_Object__count__C
  000013dc    000013dc    00000004   00000004    r-- .const:ti_sysbios_knl_Queue_Object__table__C
  000013e0    000013e0    00000004   00000004    r-- .const:ti_sysbios_knl_Swi_Object__count__C
  000013e4    000013e4    00000004   00000004    r-- .const:ti_sysbios_knl_Swi_Object__table__C
  000013e8    000013e8    00000004   00000004    r-- .const:ti_sysbios_knl_Swi_numPriorities__C
  000013ec    000013ec    00000004   00000004    r-- .const:ti_sysbios_knl_Task_Object__count__C
  000013f0    000013f0    00000004   00000004    r-- .const:ti_sysbios_knl_Task_Object__table__C
  000013f4    000013f4    00000004   00000004    r-- .const:ti_sysbios_knl_Task_allBlockedFunc__C
  000013f8    000013f8    00000004   00000004    r-- .const:ti_sysbios_knl_Task_defaultStackHeap__C
  000013fc    000013fc    00000004   00000004    r-- .const:ti_sysbios_knl_Task_defaultStackSize__C
  00001400    00001400    00000004   00000004    r-- .const:ti_sysbios_knl_Task_numConstructedTasks__C
  00001404    00001404    00000002   00000002    r-x .text.3
  00001406    00001406    00000002   00000002    r-- .const:ti_sysbios_family_arm_cc26xx_Timer_Module__id__C
  00001408    00001408    00000002   00000002    r-- .const:ti_sysbios_family_arm_cc26xx_TimestampProvider_useClockTimer__C
  0000140a    0000140a    00000002   00000002    r-- .const:ti_sysbios_family_arm_m3_Hwi_Module__id__C
  0000140c    0000140c    00000002   00000002    r-- .const:ti_sysbios_gates_GateHwi_Module__id__C
  0000140e    0000140e    00000002   00000002    r-- .const:ti_sysbios_gates_GateMutex_Module__id__C
  00001410    00001410    00000002   00000002    r-- .const:ti_sysbios_heaps_HeapMem_Module__id__C
  00001412    00001412    00000002   00000002    r-- .const:ti_sysbios_knl_Task_initStackFlag__C
  00001414    00001414    00000001   00000001    r-- .const:ti_sysbios_knl_Clock_tickMode__C
  00001418    00001418    00000008   00000008    r-- .const:xdc_runtime_Startup_firstFxns__C
  00001420    00001420    00000008   00000008    r-- .const:xdc_runtime_Startup_lastFxns__C
  00001428    00001428    00000004   00000004    r-- .const:xdc_runtime_Assert_E_assertFailed__C
  0000142c    0000142c    00000004   00000004    r-- .const:xdc_runtime_Error_E_memory__C
  00001430    00001430    00000004   00000004    r-- .const:xdc_runtime_Error_policyFxn__C
  00001434    00001434    00000004   00000004    r-- .const:xdc_runtime_IGateProvider_Interface__BASE__C
  00001438    00001438    00000004   00000004    r-- .const:xdc_runtime_IHeap_Interface__BASE__C
  0000143c    0000143c    00000004   00000004    r-- .const:xdc_runtime_IModule_Interface__BASE__C
  00001440    00001440    00000004   00000004    r-- .const:xdc_runtime_Main_Module__diagsEnabled__C
  00001444    00001444    00000004   00000004    r-- .const:xdc_runtime_Main_Module__diagsIncluded__C
  00001448    00001448    00000004   00000004    r-- .const:xdc_runtime_Main_Module__diagsMask__C
  0000144c    0000144c    00000004   00000004    r-- .const:xdc_runtime_Memory_defaultHeapInstance__C
  00001450    00001450    00000004   00000004    r-- .const:xdc_runtime_Startup_execImpl__C
  00001454    00001454    00000004   00000004    r-- .const:xdc_runtime_Startup_maxPasses__C
  00001458    00001458    00000004   00000004    r-- .const:xdc_runtime_Startup_sfxnRts__C
  0000145c    0000145c    00000004   00000004    r-- .const:xdc_runtime_Startup_sfxnTab__C
  00001460    00001460    00000004   00000004    r-- .const:xdc_runtime_Startup_startModsFxn__C
  00001464    00001464    00000004   00000004    r-- .const:xdc_runtime_SysCallback_abortFxn__C
  00001468    00001468    00000004   00000004    r-- .const:xdc_runtime_SysCallback_exitFxn__C
  0000146c    0000146c    00000004   00000004    r-- .const:xdc_runtime_System_abortFxn__C
  00001470    00001470    00000004   00000004    r-- .const:xdc_runtime_System_exitFxn__C
  00001474    00001474    00000004   00000004    r-- .const:xdc_runtime_System_maxAtexitHandlers__C
  00001478    00001478    00000004   00000004    r-- .const:xdc_runtime_Text_charTab__C
  0000147c    0000147c    00000004   00000004    r-- .const:xdc_runtime_Text_nameEmpty__C
  00001480    00001480    00000004   00000004    r-- .const:xdc_runtime_Text_nameStatic__C
  00001484    00001484    00000004   00000004    r-- .const:xdc_runtime_Text_nameUnknown__C
  00001488    00001488    00000002   00000002    r-- .const:xdc_runtime_Main_Module__id__C
  0000148a    0000148a    00000002   00000002    r-- .const:xdc_runtime_Memory_Module__id__C
  0000148c    0000148c    00000002   00000002    r-- .const:xdc_runtime_Text_charCnt__C
  0000148e    0000148e    00000002   00000002    r-- .const:xdc_runtime_Text_isLoaded__C
  00001490    00001490    00000001   00000001    r-- .const:xdc_runtime_Error_policy__C
  00001494    00001494    00000004   00000004    r-- .const:ti_sysbios_rom_ROM_AONRTCChannelEnable
  00001498    00001498    00000004   00000004    r-- .const:ti_sysbios_rom_ROM_AONRTCCompareValueSet
  0000149c    0000149c    00000004   00000004    r-- .const:ti_sysbios_rom_ROM_AONRTCCurrentCompareValueGet
  000014a0    000014a0    00000004   00000004    r-- .const:ti_sysbios_rom_ROM_AONRTCEventClear
  000014a4    000014a4    00000004   00000004    r-- .const:ti_sysbios_rom_ROM_ti_sysbios_family_arm_cc26xx_Timer_getCount64__E
  000014a8    000014a8    00000004   00000004    r-- .const:ti_sysbios_rom_ROM_ti_sysbios_family_arm_cc26xx_Timer_getCurrentTick__E
  000014ac    000014ac    00000004   00000004    r-- .const:ti_sysbios_rom_ROM_ti_sysbios_family_arm_cc26xx_Timer_getMaxTicks__E
  000014b0    000014b0    00000004   00000004    r-- .const:ti_sysbios_rom_ROM_ti_sysbios_family_arm_cc26xx_Timer_initDevice__I
  000014b4    000014b4    00000004   00000004    r-- .const:ti_sysbios_rom_ROM_ti_sysbios_family_arm_cc26xx_Timer_setNextTick__E
  000014b8    000014b8    00000004   00000004    r-- .const:ti_sysbios_rom_ROM_ti_sysbios_family_arm_cc26xx_Timer_setThreshold__I
  000014bc    000014bc    00000004   00000004    r-- .const:ti_sysbios_rom_ROM_ti_sysbios_family_arm_cc26xx_Timer_start__E
  000014c0    000014c0    00000004   00000004    r-- .const:ti_sysbios_rom_ROM_ti_sysbios_family_arm_cc26xx_TimestampProvider_get32__E
  000014c4    000014c4    00000004   00000004    r-- .const:ti_sysbios_rom_ROM_xdc_runtime_Startup_getState__I
  000014c8    000014c8    00000004   00000004    r-- .const:ti_sysbios_rom_ROM_xdc_runtime_System_SupportProxy_abort__E
  000014cc    000014cc    00000004   00000004    r-- .const:ti_sysbios_rom_ROM_xdc_runtime_System_SupportProxy_exit__E
  000014d0    000014d0    00000004   00000004    r-- .const:ti_sysbios_gates_GateMutex_Instance_State_sem__O
  000014d4    000014d4    00000004   00000004    r-- .const:ti_sysbios_knl_Clock_Module_State_clockQ__O
  000014d8    000014d8    00000004   00000004    r-- .const:ti_sysbios_knl_Mailbox_Instance_State_dataQue__O
  000014dc    000014dc    00000004   00000004    r-- .const:ti_sysbios_knl_Mailbox_Instance_State_dataSem__O
  000014e0    000014e0    00000004   00000004    r-- .const:ti_sysbios_knl_Mailbox_Instance_State_freeQue__O
  000014e4    000014e4    00000004   00000004    r-- .const:ti_sysbios_knl_Mailbox_Instance_State_freeSem__O
  000014e8    000014e8    00000004   00000004    r-- .const:ti_sysbios_knl_Semaphore_Instance_State_pendQ__O
  000014ec    000014ec    00000004   00000004    r-- .const:ti_sysbios_knl_Task_Module_State_inactiveQ__O
  000014f0    000014f0    00004418   00004418    r-x .text.4
  00005908    00005908    00000768   00000768    r-- .const
  00006070    00006070    00000268   00000268    r-- .cinit
0001ffa8    0001ffa8    00000058   00000058    r--
  0001ffa8    0001ffa8    00000058   00000058    r-- .ccfg
20000100    20000100    00002411   00000000    rw-
  20000100    20000100    00000044   00000000    rw- .data:ti_sysbios_knl_Task_Module__state__V
  20000144    20000144    00000034   00000000    rw- .data:ti_sysbios_family_arm_m3_Hwi_Module__state__V
  20000178    20000178    0000002c   00000000    rw- .data:ti_sysbios_knl_Clock_Module__state__V
  200001a4    200001a4    00000024   00000000    rw- .data:ti_sysbios_BIOS_Module__state__V
  200001c8    200001c8    0000001c   00000000    rw- .data:ti_sysbios_knl_Swi_Module__state__V
  200001e4    200001e4    00000008   00000000    rw- .data:ti_sysbios_family_arm_cc26xx_Timer_Module__state__V
  200001ec    200001ec    00000004   00000000    rw- .data:ti_sysbios_family_arm_cc26xx_TimestampProvider_Module__state__V
  200001f0    200001f0    00000008   00000000    rw- .data:xdc_runtime_Startup_Module__state__V
  200001f8    200001f8    00000008   00000000    rw- .data:xdc_runtime_System_Module__state__V
  20000200    20000200    00000004   00000000    rw- .data:xdc_runtime_Memory_Module__state__V
  20000208    20000208    00002309   00000000    rw- .bss
20002518    20002518    00001000   00000000    r--
  20002518    20002518    00001000   00000000    r-- .priheap
20003518    20003518    00000532   00000000    rw-
  20003518    20003518    00000532   00000000    rw- .data
20004c00    20004c00    00000400   00000000    rw-
  20004c00    20004c00    00000400   00000000    rw- .stack


SECTION ALLOCATION MAP

 output                                  attributes/
section   page    origin      length       input sections
--------  ----  ----------  ----------   ----------------
.const:ti_sysbios_knl_Task_Object__PARAMS__C 
*          0    00001000    0000003c     
                  00001000    0000003c     release_pem3.oem3 (.const:ti_sysbios_knl_Task_Object__PARAMS__C)

.const:ti_sysbios_knl_Mailbox_Object__PARAMS__C 
*          0    0000103c    00000034     
                  0000103c    00000034     release_pem3.oem3 (.const:ti_sysbios_knl_Mailbox_Object__PARAMS__C)

.const:ti_sysbios_family_arm_m3_Hwi_Object__PARAMS__C 
*          0    00001070    00000030     
                  00001070    00000030     release_pem3.oem3 (.const:ti_sysbios_family_arm_m3_Hwi_Object__PARAMS__C)

.const:ti_sysbios_hal_Hwi_Object__PARAMS__C 
*          0    000010a0    0000002c     
                  000010a0    0000002c     release_pem3.oem3 (.const:ti_sysbios_hal_Hwi_Object__PARAMS__C)

.const:ti_sysbios_heaps_HeapMem_Module__FXNS__C 
*          0    000010cc    00000028     
                  000010cc    00000028     release_pem3.oem3 (.const:ti_sysbios_heaps_HeapMem_Module__FXNS__C)

.const:ti_sysbios_knl_Swi_Object__PARAMS__C 
*          0    000010f4    00000028     
                  000010f4    00000028     release_pem3.oem3 (.const:ti_sysbios_knl_Swi_Object__PARAMS__C)

.const:ti_sysbios_gates_GateHwi_Module__FXNS__C 
*          0    0000111c    00000024     
                  0000111c    00000024     release_pem3.oem3 (.const:ti_sysbios_gates_GateHwi_Module__FXNS__C)

.const:ti_sysbios_gates_GateMutex_Module__FXNS__C 
*          0    00001140    00000024     
                  00001140    00000024     release_pem3.oem3 (.const:ti_sysbios_gates_GateMutex_Module__FXNS__C)

.const:ti_sysbios_heaps_HeapMem_Object__PARAMS__C 
*          0    00001164    00000024     
                  00001164    00000024     release_pem3.oem3 (.const:ti_sysbios_heaps_HeapMem_Object__PARAMS__C)

.const:ti_sysbios_knl_Clock_Object__PARAMS__C 
*          0    00001188    00000024     
                  00001188    00000024     release_pem3.oem3 (.const:ti_sysbios_knl_Clock_Object__PARAMS__C)

.const:ti_sysbios_knl_Semaphore_Object__PARAMS__C 
*          0    000011ac    00000024     
                  000011ac    00000024     release_pem3.oem3 (.const:ti_sysbios_knl_Semaphore_Object__PARAMS__C)

.const:ti_sysbios_family_arm_m3_Hwi_Object__DESC__C 
*          0    000011d0    00000020     
                  000011d0    00000020     release_pem3.oem3 (.const:ti_sysbios_family_arm_m3_Hwi_Object__DESC__C)

.const:ti_sysbios_gates_GateHwi_Object__DESC__C 
*          0    000011f0    00000020     
                  000011f0    00000020     release_pem3.oem3 (.const:ti_sysbios_gates_GateHwi_Object__DESC__C)

.const:ti_sysbios_gates_GateMutex_Object__DESC__C 
*          0    00001210    00000020     
                  00001210    00000020     release_pem3.oem3 (.const:ti_sysbios_gates_GateMutex_Object__DESC__C)

.const:ti_sysbios_hal_Hwi_Object__DESC__C 
*          0    00001230    00000020     
                  00001230    00000020     release_pem3.oem3 (.const:ti_sysbios_hal_Hwi_Object__DESC__C)

.const:ti_sysbios_heaps_HeapMem_Object__DESC__C 
*          0    00001250    00000020     
                  00001250    00000020     release_pem3.oem3 (.const:ti_sysbios_heaps_HeapMem_Object__DESC__C)

.const:ti_sysbios_knl_Clock_Object__DESC__C 
*          0    00001270    00000020     
                  00001270    00000020     release_pem3.oem3 (.const:ti_sysbios_knl_Clock_Object__DESC__C)

.const:ti_sysbios_knl_Mailbox_Object__DESC__C 
*          0    00001290    00000020     
                  00001290    00000020     release_pem3.oem3 (.const:ti_sysbios_knl_Mailbox_Object__DESC__C)

.const:ti_sysbios_knl_Queue_Object__DESC__C 
*          0    000012b0    00000020     
                  000012b0    00000020     release_pem3.oem3 (.const:ti_sysbios_knl_Queue_Object__DESC__C)

.const:ti_sysbios_knl_Semaphore_Object__DESC__C 
*          0    000012d0    00000020     
                  000012d0    00000020     release_pem3.oem3 (.const:ti_sysbios_knl_Semaphore_Object__DESC__C)

.const:ti_sysbios_knl_Swi_Object__DESC__C 
*          0    000012f0    00000020     
                  000012f0    00000020     release_pem3.oem3 (.const:ti_sysbios_knl_Swi_Object__DESC__C)

.const:ti_sysbios_knl_Task_Object__DESC__C 
*          0    00001310    00000020     
                  00001310    00000020     release_pem3.oem3 (.const:ti_sysbios_knl_Task_Object__DESC__C)

.const:ti_sysbios_gates_GateHwi_Object__PARAMS__C 
*          0    00001330    00000018     
                  00001330    00000018     release_pem3.oem3 (.const:ti_sysbios_gates_GateHwi_Object__PARAMS__C)

.const:ti_sysbios_gates_GateMutex_Object__PARAMS__C 
*          0    00001348    00000018     
                  00001348    00000018     release_pem3.oem3 (.const:ti_sysbios_gates_GateMutex_Object__PARAMS__C)

.const:ti_sysbios_knl_Queue_Object__PARAMS__C 
*          0    00001360    00000018     
                  00001360    00000018     release_pem3.oem3 (.const:ti_sysbios_knl_Queue_Object__PARAMS__C)

.const:ti_sysbios_knl_Idle_funcList__C 
*          0    00001378    00000008     
                  00001378    00000008     release_pem3.oem3 (.const:ti_sysbios_knl_Idle_funcList__C)

.const:ti_sysbios_family_arm_cc26xx_Timer_startupNeeded__C 
*          0    00001384    00000004     
                  00001384    00000004     release_pem3.oem3 (.const:ti_sysbios_family_arm_cc26xx_Timer_startupNeeded__C)

.const:ti_sysbios_family_arm_m3_Hwi_E_alreadyDefined__C 
*          0    00001388    00000004     
                  00001388    00000004     release_pem3.oem3 (.const:ti_sysbios_family_arm_m3_Hwi_E_alreadyDefined__C)

.const:ti_sysbios_family_arm_m3_Hwi_E_hwiLimitExceeded__C 
*          0    0000138c    00000004     
                  0000138c    00000004     release_pem3.oem3 (.const:ti_sysbios_family_arm_m3_Hwi_E_hwiLimitExceeded__C)

.const:ti_sysbios_family_arm_m3_Hwi_NUM_INTERRUPTS__C 
*          0    00001390    00000004     
                  00001390    00000004     release_pem3.oem3 (.const:ti_sysbios_family_arm_m3_Hwi_NUM_INTERRUPTS__C)

.const:ti_sysbios_family_arm_m3_Hwi_Object__count__C 
*          0    00001394    00000004     
                  00001394    00000004     release_pem3.oem3 (.const:ti_sysbios_family_arm_m3_Hwi_Object__count__C)

.const:ti_sysbios_family_arm_m3_Hwi_Object__table__C 
*          0    00001398    00000004     
                  00001398    00000004     release_pem3.oem3 (.const:ti_sysbios_family_arm_m3_Hwi_Object__table__C)

.const:ti_sysbios_family_arm_m3_Hwi_ccr__C 
*          0    0000139c    00000004     
                  0000139c    00000004     release_pem3.oem3 (.const:ti_sysbios_family_arm_m3_Hwi_ccr__C)

.const:ti_sysbios_family_arm_m3_Hwi_excHandlerFunc__C 
*          0    000013a0    00000004     
                  000013a0    00000004     release_pem3.oem3 (.const:ti_sysbios_family_arm_m3_Hwi_excHandlerFunc__C)

.const:ti_sysbios_family_arm_m3_Hwi_nullIsrFunc__C 
*          0    000013a4    00000004     
                  000013a4    00000004     release_pem3.oem3 (.const:ti_sysbios_family_arm_m3_Hwi_nullIsrFunc__C)

.const:ti_sysbios_family_arm_m3_Hwi_numSparseInterrupts__C 
*          0    000013a8    00000004     
                  000013a8    00000004     release_pem3.oem3 (.const:ti_sysbios_family_arm_m3_Hwi_numSparseInterrupts__C)

.const:ti_sysbios_family_arm_m3_Hwi_priGroup__C 
*          0    000013ac    00000004     
                  000013ac    00000004     release_pem3.oem3 (.const:ti_sysbios_family_arm_m3_Hwi_priGroup__C)

.const:ti_sysbios_family_arm_m3_TaskSupport_stackAlignment__C 
*          0    000013b0    00000004     
                  000013b0    00000004     release_pem3.oem3 (.const:ti_sysbios_family_arm_m3_TaskSupport_stackAlignment__C)

.const:ti_sysbios_heaps_HeapMem_E_memory__C 
*          0    000013b4    00000004     
                  000013b4    00000004     release_pem3.oem3 (.const:ti_sysbios_heaps_HeapMem_E_memory__C)

.const:ti_sysbios_heaps_HeapMem_Module__gateObj__C 
*          0    000013b8    00000004     
                  000013b8    00000004     release_pem3.oem3 (.const:ti_sysbios_heaps_HeapMem_Module__gateObj__C)

.const:ti_sysbios_heaps_HeapMem_Object__count__C 
*          0    000013bc    00000004     
                  000013bc    00000004     release_pem3.oem3 (.const:ti_sysbios_heaps_HeapMem_Object__count__C)

.const:ti_sysbios_heaps_HeapMem_Object__table__C 
*          0    000013c0    00000004     
                  000013c0    00000004     release_pem3.oem3 (.const:ti_sysbios_heaps_HeapMem_Object__table__C)

.const:ti_sysbios_heaps_HeapMem_reqAlign__C 
*          0    000013c4    00000004     
                  000013c4    00000004     release_pem3.oem3 (.const:ti_sysbios_heaps_HeapMem_reqAlign__C)

.const:ti_sysbios_knl_Clock_serviceMargin__C 
*          0    000013c8    00000004     
                  000013c8    00000004     release_pem3.oem3 (.const:ti_sysbios_knl_Clock_serviceMargin__C)

.const:ti_sysbios_knl_Mailbox_Object__count__C 
*          0    000013cc    00000004     
                  000013cc    00000004     release_pem3.oem3 (.const:ti_sysbios_knl_Mailbox_Object__count__C)

.const:ti_sysbios_knl_Mailbox_Object__table__C 
*          0    000013d0    00000004     
                  000013d0    00000004     release_pem3.oem3 (.const:ti_sysbios_knl_Mailbox_Object__table__C)

.const:ti_sysbios_knl_Mailbox_maxTypeAlign__C 
*          0    000013d4    00000004     
                  000013d4    00000004     release_pem3.oem3 (.const:ti_sysbios_knl_Mailbox_maxTypeAlign__C)

.const:ti_sysbios_knl_Queue_Object__count__C 
*          0    000013d8    00000004     
                  000013d8    00000004     release_pem3.oem3 (.const:ti_sysbios_knl_Queue_Object__count__C)

.const:ti_sysbios_knl_Queue_Object__table__C 
*          0    000013dc    00000004     
                  000013dc    00000004     release_pem3.oem3 (.const:ti_sysbios_knl_Queue_Object__table__C)

.const:ti_sysbios_knl_Swi_Object__count__C 
*          0    000013e0    00000004     
                  000013e0    00000004     release_pem3.oem3 (.const:ti_sysbios_knl_Swi_Object__count__C)

.const:ti_sysbios_knl_Swi_Object__table__C 
*          0    000013e4    00000004     
                  000013e4    00000004     release_pem3.oem3 (.const:ti_sysbios_knl_Swi_Object__table__C)

.const:ti_sysbios_knl_Swi_numPriorities__C 
*          0    000013e8    00000004     
                  000013e8    00000004     release_pem3.oem3 (.const:ti_sysbios_knl_Swi_numPriorities__C)

.const:ti_sysbios_knl_Task_Object__count__C 
*          0    000013ec    00000004     
                  000013ec    00000004     release_pem3.oem3 (.const:ti_sysbios_knl_Task_Object__count__C)

.const:ti_sysbios_knl_Task_Object__table__C 
*          0    000013f0    00000004     
                  000013f0    00000004     release_pem3.oem3 (.const:ti_sysbios_knl_Task_Object__table__C)

.const:ti_sysbios_knl_Task_allBlockedFunc__C 
*          0    000013f4    00000004     
                  000013f4    00000004     release_pem3.oem3 (.const:ti_sysbios_knl_Task_allBlockedFunc__C)

.const:ti_sysbios_knl_Task_defaultStackHeap__C 
*          0    000013f8    00000004     
                  000013f8    00000004     release_pem3.oem3 (.const:ti_sysbios_knl_Task_defaultStackHeap__C)

.const:ti_sysbios_knl_Task_defaultStackSize__C 
*          0    000013fc    00000004     
                  000013fc    00000004     release_pem3.oem3 (.const:ti_sysbios_knl_Task_defaultStackSize__C)

.const:ti_sysbios_knl_Task_numConstructedTasks__C 
*          0    00001400    00000004     
                  00001400    00000004     release_pem3.oem3 (.const:ti_sysbios_knl_Task_numConstructedTasks__C)

.const:ti_sysbios_family_arm_cc26xx_Timer_Module__id__C 
*          0    00001406    00000002     
                  00001406    00000002     release_pem3.oem3 (.const:ti_sysbios_family_arm_cc26xx_Timer_Module__id__C)

.const:ti_sysbios_family_arm_cc26xx_TimestampProvider_useClockTimer__C 
*          0    00001408    00000002     
                  00001408    00000002     release_pem3.oem3 (.const:ti_sysbios_family_arm_cc26xx_TimestampProvider_useClockTimer__C)

.const:ti_sysbios_family_arm_m3_Hwi_Module__id__C 
*          0    0000140a    00000002     
                  0000140a    00000002     release_pem3.oem3 (.const:ti_sysbios_family_arm_m3_Hwi_Module__id__C)

.const:ti_sysbios_gates_GateHwi_Module__id__C 
*          0    0000140c    00000002     
                  0000140c    00000002     release_pem3.oem3 (.const:ti_sysbios_gates_GateHwi_Module__id__C)

.const:ti_sysbios_gates_GateMutex_Module__id__C 
*          0    0000140e    00000002     
                  0000140e    00000002     release_pem3.oem3 (.const:ti_sysbios_gates_GateMutex_Module__id__C)

.const:ti_sysbios_heaps_HeapMem_Module__id__C 
*          0    00001410    00000002     
                  00001410    00000002     release_pem3.oem3 (.const:ti_sysbios_heaps_HeapMem_Module__id__C)

.const:ti_sysbios_knl_Task_initStackFlag__C 
*          0    00001412    00000002     
                  00001412    00000002     release_pem3.oem3 (.const:ti_sysbios_knl_Task_initStackFlag__C)

.const:ti_sysbios_knl_Clock_tickMode__C 
*          0    00001414    00000001     
                  00001414    00000001     release_pem3.oem3 (.const:ti_sysbios_knl_Clock_tickMode__C)

.const:xdc_runtime_Startup_firstFxns__C 
*          0    00001418    00000008     
                  00001418    00000008     release_pem3.oem3 (.const:xdc_runtime_Startup_firstFxns__C)

.const:xdc_runtime_Startup_lastFxns__C 
*          0    00001420    00000008     
                  00001420    00000008     release_pem3.oem3 (.const:xdc_runtime_Startup_lastFxns__C)

.const:xdc_runtime_Assert_E_assertFailed__C 
*          0    00001428    00000004     
                  00001428    00000004     release_pem3.oem3 (.const:xdc_runtime_Assert_E_assertFailed__C)

.const:xdc_runtime_Error_E_memory__C 
*          0    0000142c    00000004     
                  0000142c    00000004     release_pem3.oem3 (.const:xdc_runtime_Error_E_memory__C)

.const:xdc_runtime_Error_policyFxn__C 
*          0    00001430    00000004     
                  00001430    00000004     release_pem3.oem3 (.const:xdc_runtime_Error_policyFxn__C)

.const:xdc_runtime_IGateProvider_Interface__BASE__C 
*          0    00001434    00000004     
                  00001434    00000004     release_pem3.oem3 (.const:xdc_runtime_IGateProvider_Interface__BASE__C)

.const:xdc_runtime_IHeap_Interface__BASE__C 
*          0    00001438    00000004     
                  00001438    00000004     release_pem3.oem3 (.const:xdc_runtime_IHeap_Interface__BASE__C)

.const:xdc_runtime_IModule_Interface__BASE__C 
*          0    0000143c    00000004     
                  0000143c    00000004     release_pem3.oem3 (.const:xdc_runtime_IModule_Interface__BASE__C)

.const:xdc_runtime_Main_Module__diagsEnabled__C 
*          0    00001440    00000004     
                  00001440    00000004     release_pem3.oem3 (.const:xdc_runtime_Main_Module__diagsEnabled__C)

.const:xdc_runtime_Main_Module__diagsIncluded__C 
*          0    00001444    00000004     
                  00001444    00000004     release_pem3.oem3 (.const:xdc_runtime_Main_Module__diagsIncluded__C)

.const:xdc_runtime_Main_Module__diagsMask__C 
*          0    00001448    00000004     
                  00001448    00000004     release_pem3.oem3 (.const:xdc_runtime_Main_Module__diagsMask__C)

.const:xdc_runtime_Memory_defaultHeapInstance__C 
*          0    0000144c    00000004     
                  0000144c    00000004     release_pem3.oem3 (.const:xdc_runtime_Memory_defaultHeapInstance__C)

.const:xdc_runtime_Startup_execImpl__C 
*          0    00001450    00000004     
                  00001450    00000004     release_pem3.oem3 (.const:xdc_runtime_Startup_execImpl__C)

.const:xdc_runtime_Startup_maxPasses__C 
*          0    00001454    00000004     
                  00001454    00000004     release_pem3.oem3 (.const:xdc_runtime_Startup_maxPasses__C)

.const:xdc_runtime_Startup_sfxnRts__C 
*          0    00001458    00000004     
                  00001458    00000004     release_pem3.oem3 (.const:xdc_runtime_Startup_sfxnRts__C)

.const:xdc_runtime_Startup_sfxnTab__C 
*          0    0000145c    00000004     
                  0000145c    00000004     release_pem3.oem3 (.const:xdc_runtime_Startup_sfxnTab__C)

.const:xdc_runtime_Startup_startModsFxn__C 
*          0    00001460    00000004     
                  00001460    00000004     release_pem3.oem3 (.const:xdc_runtime_Startup_startModsFxn__C)

.const:xdc_runtime_SysCallback_abortFxn__C 
*          0    00001464    00000004     
                  00001464    00000004     release_pem3.oem3 (.const:xdc_runtime_SysCallback_abortFxn__C)

.const:xdc_runtime_SysCallback_exitFxn__C 
*          0    00001468    00000004     
                  00001468    00000004     release_pem3.oem3 (.const:xdc_runtime_SysCallback_exitFxn__C)

.const:xdc_runtime_System_abortFxn__C 
*          0    0000146c    00000004     
                  0000146c    00000004     release_pem3.oem3 (.const:xdc_runtime_System_abortFxn__C)

.const:xdc_runtime_System_exitFxn__C 
*          0    00001470    00000004     
                  00001470    00000004     release_pem3.oem3 (.const:xdc_runtime_System_exitFxn__C)

.const:xdc_runtime_System_maxAtexitHandlers__C 
*          0    00001474    00000004     
                  00001474    00000004     release_pem3.oem3 (.const:xdc_runtime_System_maxAtexitHandlers__C)

.const:xdc_runtime_Text_charTab__C 
*          0    00001478    00000004     
                  00001478    00000004     release_pem3.oem3 (.const:xdc_runtime_Text_charTab__C)

.const:xdc_runtime_Text_nameEmpty__C 
*          0    0000147c    00000004     
                  0000147c    00000004     release_pem3.oem3 (.const:xdc_runtime_Text_nameEmpty__C)

.const:xdc_runtime_Text_nameStatic__C 
*          0    00001480    00000004     
                  00001480    00000004     release_pem3.oem3 (.const:xdc_runtime_Text_nameStatic__C)

.const:xdc_runtime_Text_nameUnknown__C 
*          0    00001484    00000004     
                  00001484    00000004     release_pem3.oem3 (.const:xdc_runtime_Text_nameUnknown__C)

.const:xdc_runtime_Main_Module__id__C 
*          0    00001488    00000002     
                  00001488    00000002     release_pem3.oem3 (.const:xdc_runtime_Main_Module__id__C)

.const:xdc_runtime_Memory_Module__id__C 
*          0    0000148a    00000002     
                  0000148a    00000002     release_pem3.oem3 (.const:xdc_runtime_Memory_Module__id__C)

.const:xdc_runtime_Text_charCnt__C 
*          0    0000148c    00000002     
                  0000148c    00000002     release_pem3.oem3 (.const:xdc_runtime_Text_charCnt__C)

.const:xdc_runtime_Text_isLoaded__C 
*          0    0000148e    00000002     
                  0000148e    00000002     release_pem3.oem3 (.const:xdc_runtime_Text_isLoaded__C)

.const:xdc_runtime_Error_policy__C 
*          0    00001490    00000001     
                  00001490    00000001     release_pem3.oem3 (.const:xdc_runtime_Error_policy__C)

.const:ti_sysbios_rom_ROM_AONRTCChannelEnable 
*          0    00001494    00000004     
                  00001494    00000004     release_pem3.oem3 (.const:ti_sysbios_rom_ROM_AONRTCChannelEnable)

.const:ti_sysbios_rom_ROM_AONRTCCompareValueSet 
*          0    00001498    00000004     
                  00001498    00000004     release_pem3.oem3 (.const:ti_sysbios_rom_ROM_AONRTCCompareValueSet)

.const:ti_sysbios_rom_ROM_AONRTCCurrentCompareValueGet 
*          0    0000149c    00000004     
                  0000149c    00000004     release_pem3.oem3 (.const:ti_sysbios_rom_ROM_AONRTCCurrentCompareValueGet)

.const:ti_sysbios_rom_ROM_AONRTCEventClear 
*          0    000014a0    00000004     
                  000014a0    00000004     release_pem3.oem3 (.const:ti_sysbios_rom_ROM_AONRTCEventClear)

.const:ti_sysbios_rom_ROM_ti_sysbios_family_arm_cc26xx_Timer_getCount64__E 
*          0    000014a4    00000004     
                  000014a4    00000004     release_pem3.oem3 (.const:ti_sysbios_rom_ROM_ti_sysbios_family_arm_cc26xx_Timer_getCount64__E)

.const:ti_sysbios_rom_ROM_ti_sysbios_family_arm_cc26xx_Timer_getCurrentTick__E 
*          0    000014a8    00000004     
                  000014a8    00000004     release_pem3.oem3 (.const:ti_sysbios_rom_ROM_ti_sysbios_family_arm_cc26xx_Timer_getCurrentTick__E)

.const:ti_sysbios_rom_ROM_ti_sysbios_family_arm_cc26xx_Timer_getMaxTicks__E 
*          0    000014ac    00000004     
                  000014ac    00000004     release_pem3.oem3 (.const:ti_sysbios_rom_ROM_ti_sysbios_family_arm_cc26xx_Timer_getMaxTicks__E)

.const:ti_sysbios_rom_ROM_ti_sysbios_family_arm_cc26xx_Timer_initDevice__I 
*          0    000014b0    00000004     
                  000014b0    00000004     release_pem3.oem3 (.const:ti_sysbios_rom_ROM_ti_sysbios_family_arm_cc26xx_Timer_initDevice__I)

.const:ti_sysbios_rom_ROM_ti_sysbios_family_arm_cc26xx_Timer_setNextTick__E 
*          0    000014b4    00000004     
                  000014b4    00000004     release_pem3.oem3 (.const:ti_sysbios_rom_ROM_ti_sysbios_family_arm_cc26xx_Timer_setNextTick__E)

.const:ti_sysbios_rom_ROM_ti_sysbios_family_arm_cc26xx_Timer_setThreshold__I 
*          0    000014b8    00000004     
                  000014b8    00000004     release_pem3.oem3 (.const:ti_sysbios_rom_ROM_ti_sysbios_family_arm_cc26xx_Timer_setThreshold__I)

.const:ti_sysbios_rom_ROM_ti_sysbios_family_arm_cc26xx_Timer_start__E 
*          0    000014bc    00000004     
                  000014bc    00000004     release_pem3.oem3 (.const:ti_sysbios_rom_ROM_ti_sysbios_family_arm_cc26xx_Timer_start__E)

.const:ti_sysbios_rom_ROM_ti_sysbios_family_arm_cc26xx_TimestampProvider_get32__E 
*          0    000014c0    00000004     
                  000014c0    00000004     release_pem3.oem3 (.const:ti_sysbios_rom_ROM_ti_sysbios_family_arm_cc26xx_TimestampProvider_get32__E)

.const:ti_sysbios_rom_ROM_xdc_runtime_Startup_getState__I 
*          0    000014c4    00000004     
                  000014c4    00000004     release_pem3.oem3 (.const:ti_sysbios_rom_ROM_xdc_runtime_Startup_getState__I)

.const:ti_sysbios_rom_ROM_xdc_runtime_System_SupportProxy_abort__E 
*          0    000014c8    00000004     
                  000014c8    00000004     release_pem3.oem3 (.const:ti_sysbios_rom_ROM_xdc_runtime_System_SupportProxy_abort__E)

.const:ti_sysbios_rom_ROM_xdc_runtime_System_SupportProxy_exit__E 
*          0    000014cc    00000004     
                  000014cc    00000004     release_pem3.oem3 (.const:ti_sysbios_rom_ROM_xdc_runtime_System_SupportProxy_exit__E)

.const:ti_sysbios_gates_GateMutex_Instance_State_sem__O 
*          0    000014d0    00000004     
                  000014d0    00000004     release_pem3.oem3 (.const:ti_sysbios_gates_GateMutex_Instance_State_sem__O)

.const:ti_sysbios_knl_Clock_Module_State_clockQ__O 
*          0    000014d4    00000004     
                  000014d4    00000004     release_pem3.oem3 (.const:ti_sysbios_knl_Clock_Module_State_clockQ__O)

.const:ti_sysbios_knl_Mailbox_Instance_State_dataQue__O 
*          0    000014d8    00000004     
                  000014d8    00000004     release_pem3.oem3 (.const:ti_sysbios_knl_Mailbox_Instance_State_dataQue__O)

.const:ti_sysbios_knl_Mailbox_Instance_State_dataSem__O 
*          0    000014dc    00000004     
                  000014dc    00000004     release_pem3.oem3 (.const:ti_sysbios_knl_Mailbox_Instance_State_dataSem__O)

.const:ti_sysbios_knl_Mailbox_Instance_State_freeQue__O 
*          0    000014e0    00000004     
                  000014e0    00000004     release_pem3.oem3 (.const:ti_sysbios_knl_Mailbox_Instance_State_freeQue__O)

.const:ti_sysbios_knl_Mailbox_Instance_State_freeSem__O 
*          0    000014e4    00000004     
                  000014e4    00000004     release_pem3.oem3 (.const:ti_sysbios_knl_Mailbox_Instance_State_freeSem__O)

.const:ti_sysbios_knl_Semaphore_Instance_State_pendQ__O 
*          0    000014e8    00000004     
                  000014e8    00000004     release_pem3.oem3 (.const:ti_sysbios_knl_Semaphore_Instance_State_pendQ__O)

.const:ti_sysbios_knl_Task_Module_State_inactiveQ__O 
*          0    000014ec    00000004     
                  000014ec    00000004     release_pem3.oem3 (.const:ti_sysbios_knl_Task_Module_State_inactiveQ__O)

.cinit     0    00006070    00000268     
                  00006070    0000012c     (.cinit..data.load) [load image, compression = lzss]
                  0000619c    00000028     (.cinit..data:ti_sysbios_family_arm_m3_Hwi_Module__state__V.load) [load image, compression = lzss]
                  000061c4    00000021     (.cinit..data:ti_sysbios_knl_Task_Module__state__V.load) [load image, compression = lzss]
                  000061e5    0000001e     (.cinit..data:ti_sysbios_BIOS_Module__state__V.load) [load image, compression = lzss]
                  00006203    0000001d     (.cinit..data:ti_sysbios_knl_Clock_Module__state__V.load) [load image, compression = lzss]
                  00006220    00000010     (.cinit..data:ti_sysbios_knl_Swi_Module__state__V.load) [load image, compression = lzss]
                  00006230    0000000c     (__TI_handler_table)
                  0000623c    0000000b     (.cinit..data:ti_sysbios_family_arm_cc26xx_Timer_Module__state__V.load) [load image, compression = lzss]
                  00006247    0000000b     (.cinit..data:xdc_runtime_System_Module__state__V.load) [load image, compression = lzss]
                  00006252    00000006     --HOLE-- [fill = 0]
                  00006258    00000008     (.cinit..bss.load) [load image, compression = zero_init]
                  00006260    00000008     (.cinit..data:xdc_runtime_Memory_Module__state__V.load) [load image, compression = lzss]
                  00006268    00000007     (.cinit..data:ti_sysbios_family_arm_cc26xx_TimestampProvider_Module__state__V.load) [load image, compression = lzss]
                  0000626f    00000007     (.cinit..data:xdc_runtime_Startup_Module__state__V.load) [load image, compression = lzss]
                  00006276    00000002     --HOLE-- [fill = 0]
                  00006278    00000060     (__TI_cinit_table)

.init_array 
*          0    00000000    00000000     UNINITIALIZED

.ccfg      0    0001ffa8    00000058     
                  0001ffa8    00000058     ccfg.obj (.ccfg:retain)

.data:ti_sysbios_knl_Task_Module__state__V 
*          0    20000100    00000044     UNINITIALIZED
                  20000100    00000044     release_pem3.oem3 (.data:ti_sysbios_knl_Task_Module__state__V)

.data:ti_sysbios_family_arm_m3_Hwi_Module__state__V 
*          0    20000144    00000034     UNINITIALIZED
                  20000144    00000034     release_pem3.oem3 (.data:ti_sysbios_family_arm_m3_Hwi_Module__state__V)

.data:ti_sysbios_knl_Clock_Module__state__V 
*          0    20000178    0000002c     UNINITIALIZED
                  20000178    0000002c     release_pem3.oem3 (.data:ti_sysbios_knl_Clock_Module__state__V)

.data:ti_sysbios_BIOS_Module__state__V 
*          0    200001a4    00000024     UNINITIALIZED
                  200001a4    00000024     release_pem3.oem3 (.data:ti_sysbios_BIOS_Module__state__V)

.data:ti_sysbios_knl_Swi_Module__state__V 
*          0    200001c8    0000001c     UNINITIALIZED
                  200001c8    0000001c     release_pem3.oem3 (.data:ti_sysbios_knl_Swi_Module__state__V)

.data:ti_sysbios_family_arm_cc26xx_Timer_Module__state__V 
*          0    200001e4    00000008     UNINITIALIZED
                  200001e4    00000008     release_pem3.oem3 (.data:ti_sysbios_family_arm_cc26xx_Timer_Module__state__V)

.data:ti_sysbios_family_arm_cc26xx_TimestampProvider_Module__state__V 
*          0    200001ec    00000004     UNINITIALIZED
                  200001ec    00000004     release_pem3.oem3 (.data:ti_sysbios_family_arm_cc26xx_TimestampProvider_Module__state__V)

.data:xdc_runtime_Startup_Module__state__V 
*          0    200001f0    00000008     UNINITIALIZED
                  200001f0    00000008     release_pem3.oem3 (.data:xdc_runtime_Startup_Module__state__V)

.data:xdc_runtime_System_Module__state__V 
*          0    200001f8    00000008     UNINITIALIZED
                  200001f8    00000008     release_pem3.oem3 (.data:xdc_runtime_System_Module__state__V)

.data:xdc_runtime_Memory_Module__state__V 
*          0    20000200    00000004     UNINITIALIZED
                  20000200    00000004     release_pem3.oem3 (.data:xdc_runtime_Memory_Module__state__V)

.bss       0    20000208    00002309     UNINITIALIZED
                  20000208    00002000     (.common:buffer)
                  20002208    00000200     release_pem3.oem3 (.bss:taskStackSection)
                  20002408    000000c8     (.common:ti_sysbios_family_arm_m3_Hwi_dispatchTable)
                  200024d0    00000014     driverlib.lib : osc.obj (.bss:oscHfGlobals)
                  200024e4    0000000c     main_tirtos.obj (.bss:PinState)
                  200024f0    00000008     dpl_cc13x0.aem3 : PowerCC26XX_tirtos.oem3 (.bss:$O1$$)
                  200024f8    00000008     driverlib.lib : sys_ctrl.obj (.bss:powerQualGlobals)
                  20002500    00000008     (.common:i)
                  20002508    00000004     main_tirtos.obj (.bss)
                  2000250c    00000004     (.common:ClockP_tickPeriod)
                  20002510    00000001     (.common:driverlib_release_0_3_05_20_00001)

.data      0    20003518    00000532     UNINITIALIZED
                  20003518    00000114     drivers_cc13x0.aem3 : PINCC26XX.oem3 (.data:$O1$$)
                  2000362c    00000114                         : PowerCC26XX.oem3 (.data:PowerCC26XX_module)
                  20003740    00000088     rom_sysbios.aem3 : rom_sysbios.obj (.data:$O1$$)
                  200037c8    00000054     release_pem3.oem3 (.data:ti_sysbios_gates_GateMutex_Object__table__V)
                  2000381c    0000004c     release_pem3.oem3 (.data:ti_sysbios_knl_Task_Object__table__V)
                  20003868    00000048     release_pem3.oem3 (.data:ti_sysbios_family_arm_cc26xx_Timer_Object__table__V)
                  200038b0    00000030     release_pem3.oem3 (.data:ti_sysbios_knl_Swi_Module_State_0_readyQ__A)
                  200038e0    00000030     release_pem3.oem3 (.data:ti_sysbios_knl_Swi_Object__table__V)
                  20003910    00000030     release_pem3.oem3 (.data:ti_sysbios_knl_Task_Module_State_0_readyQ__A)
                  20003940    00000020     main_tirtos.obj (.data:PinTable)
                  20003960    00000020     release_pem3.oem3 (.data:ti_sysbios_knl_Clock_Object__table__V)
                  20003980    00000020     release_pem3.oem3 (.data:xdc_runtime_Error_IgnoreBlock)
                  200039a0    00000018     release_pem3.oem3 (.data:ti_sysbios_family_arm_m3_Hwi_Object__table__V)
                  200039b8    00000018     release_pem3.oem3 (.data:ti_sysbios_heaps_HeapMem_Object__table__V)
                  200039d0    00000008     rtsv7M3_T_le_eabi.lib : _lock.c.obj (.data:$O1$$)
                  200039d8    00000008     release_pem3.oem3 (.data:ti_sysbios_family_arm_m3_Hwi_Module__root__V)
                  200039e0    00000008     release_pem3.oem3 (.data:ti_sysbios_gates_GateHwi_Module__root__V)
                  200039e8    00000008     release_pem3.oem3 (.data:ti_sysbios_gates_GateMutex_Module__root__V)
                  200039f0    00000008     release_pem3.oem3 (.data:ti_sysbios_hal_Hwi_Module__root__V)
                  200039f8    00000008     release_pem3.oem3 (.data:ti_sysbios_heaps_HeapMem_Module__root__V)
                  20003a00    00000008     release_pem3.oem3 (.data:ti_sysbios_knl_Clock_Module__root__V)
                  20003a08    00000008     release_pem3.oem3 (.data:ti_sysbios_knl_Mailbox_Module__root__V)
                  20003a10    00000008     release_pem3.oem3 (.data:ti_sysbios_knl_Queue_Module__root__V)
                  20003a18    00000008     release_pem3.oem3 (.data:ti_sysbios_knl_Semaphore_Module__root__V)
                  20003a20    00000008     release_pem3.oem3 (.data:ti_sysbios_knl_Swi_Module__root__V)
                  20003a28    00000008     release_pem3.oem3 (.data:ti_sysbios_knl_Task_Module__root__V)
                  20003a30    00000008     release_pem3.oem3 (.data:xdc_runtime_System_Module_State_0_atexitHandlers__A)
                  20003a38    00000004     rtsv7M3_T_le_eabi.lib : stkdepth_vars.c.obj (.data)
                  20003a3c    00000004     release_pem3.oem3 (.data:ti_sysbios_family_arm_m3_Hwi_Module_State_0_excContext__A)
                  20003a40    00000004     release_pem3.oem3 (.data:ti_sysbios_family_arm_m3_Hwi_Module_State_0_excStack__A)
                  20003a44    00000004     release_pem3.oem3 (.data:ti_sysbios_knl_Task_Module_State_0_idleTask__A)
                  20003a48    00000002     release_pem3.oem3 (.data:ti_sysbios_family_arm_m3_Hwi_Module_State_0_excActive__A)

.priheap   0    20002518    00001000     UNINITIALIZED
                  20002518    00001000     --HOLE--

.stack     0    20004c00    00000400     UNINITIALIZED
                  20004c00    00000400     --HOLE--

.bootVecs 
*          0    00000000    00000008     DSECT
                  00000000    00000008     boot.aem3 : boot.oem3 (.bootVecs)

.resetVecs 
*          0    00000000    0000003c     
                  00000000    0000003c     release_pem3.oem3 (.resetVecs)

.vecs      0    20000000    000000c8     NOLOAD SECTION
                  20000000    000000c8     release_pem3.oem3 (.vecs)

xdc.meta   0    00000000    0000010d     COPY SECTION
                  00000000    0000010d     release_pem3.oem3 (xdc.meta)

xdc.noload 
*          0    00000000    00000000     COPY SECTION

__llvm_prf_cnts 
*          0    20000000    00000000     UNINITIALIZED

.binit     0    00000000    00000000     

.text.1    0    0000003c    00000fc4     
                  0000003c    00000a4e     rtsv7M3_T_le_eabi.lib : _printfi.c.obj (.text:__TI_printfi)
                  00000a8a    00000002                           : _lock.c.obj (.text:_nop)
                  00000a8c    0000030c     drivers_cc13x0.aem3 : PowerCC26XX_calibrateRCOSC.oem3 (.text:PowerCC26XX_auxISR)
                  00000d98    00000260     rtsv7M3_T_le_eabi.lib : _printfi.c.obj (.text:_pconv_a)
                  00000ff8    00000008     CC1350_LAUNCHXL.obj (.text:Board_init)

.text.2    0    00001380    00000004     
                  00001380    00000004     dpl_cc13x0.aem3 : PowerCC26XX_tirtos.oem3 (.text:CPUwfi)

.text.3    0    00001404    00000002     
                  00001404    00000002     drivers_cc13x0.aem3 : PowerCC26XX.oem3 (.text:emptyClockFunc)

.text.4    0    000014f0    00004418     
                  000014f0    00000238     driverlib.lib : sys_ctrl.obj (.text:NOROM_SysCtrlSetRechargeBeforePowerDown)
                  00001728    00000224     drivers_cc13x0.aem3 : PowerCC26XX.oem3 (.text:Power_sleep)
                  0000194c    000001cc     rtsv7M3_T_le_eabi.lib : _printfi.c.obj (.text:_pconv_g)
                  00001b18    000001b6                           : fd_add_t2.asm.obj (.text)
                  00001cce    00000002                           : div0.asm.obj (.text)
                  00001cd0    000001b0     drivers_cc13x0.aem3 : PINCC26XX.oem3 (.text:PIN_init)
                  00001e80    000001a4     main_tirtos.obj (.text:drawFont)
                  00002024    00000190     drivers_cc13x0.aem3 : PowerCC26XX_calibrateRCOSC.oem3 (.text:PowerCC26XX_doCalibrate)
                  000021b4    00000170     main_tirtos.obj (.text:drawLine)
                  00002324    00000158     main_tirtos.obj (.text:displayBuffer)
                  0000247c    0000013c     rtsv7M3_T_le_eabi.lib : _printfi.c.obj (.text:_pconv_e)
                  000025b8    00000136                           : fd_div_t2.asm.obj (.text)
                  000026ee    00000002     rom_sysbios.aem3 : rom_sysbios.obj (.text:ti_sysbios_BIOS_linkedWithIncorrectBootLibrary__E)
                  000026f0    0000012c     driverlib.lib : setup_rom.obj (.text:NOROM_SetupAfterColdResetWakeupFromShutDownCfg3)
                  0000281c    00000120     rtsv7M3_T_le_eabi.lib : _printfi.c.obj (.text:fcvt)
                  0000293c    00000114     drivers_cc13x0.aem3 : PowerCC26XX.oem3 (.text:Power_init)
                  00002a50    00000114     main_tirtos.obj (.text:oledInit)
                  00002b64    00000110     drivers_cc13x0.aem3 : PINCC26XX.oem3 (.text:PINCC26XX_setIoCfg)
                  00002c74    000000fc     rtsv7M3_T_le_eabi.lib : fd_mul_t2.asm.obj (.text)
                  00002d70    000000fa                           : fs_add_t2.asm.obj (.text)
                  00002e6a    00000002     release_pem3.oem3 (.text:ti_sysbios_BIOS_nullFunc__I)
                  00002e6c    000000f0     driverlib.lib : setup_rom.obj (.text:NOROM_SetupAfterColdResetWakeupFromShutDownCfg2)
                  00002f5c    000000e4     dpl_cc13x0.aem3 : PowerCC26XX_tirtos.oem3 (.text:PowerCC26XX_standbyPolicy)
                  00003040    000000d0     rtsv7M3_T_le_eabi.lib : s_scalbn.c.obj (.text:scalbn)
                  00003110    000000c8     driverlib.lib : setup.obj (.text:TrimAfterColdResetWakeupFromShutDown)
                  000031d8    000000c0     main_tirtos.obj (.text:main)
                  00003298    000000bc     drivers_cc13x0.aem3 : PowerCC26XX.oem3 (.text:Power_releaseDependency)
                  00003354    000000b4                         : PowerCC26XX.oem3 (.text:Power_setDependency)
                  00003408    000000b1     rtsv7M3_T_le_eabi.lib : _printfi.c.obj (.text:_ltostr)
                  000034b9    00000001     --HOLE-- [fill = 0]
                  000034ba    00000002     rom_sysbios.aem3 : rom_sysbios.obj (.text:ti_sysbios_knl_Clock_triggerFunc__I)
                  000034bc    000000a8     driverlib.lib : setup.obj (.text:NOROM_SetupTrimDevice)
                  00003564    000000a4                   : setup_rom.obj (.text:NOROM_SetupAfterColdResetWakeupFromShutDownCfg1)
                  00003608    000000a4     drivers_cc13x0.aem3 : PowerCC26XX.oem3 (.text:switchXOSCHFclockFunc)
                  000036ac    000000a0                         : PINCC26XX.oem3 (.text:PIN_open)
                  0000374c    000000a0     auto_init.aem3 : auto_init.oem3 (.text)
                  000037ec    0000009c     rtsv7M3_T_le_eabi.lib : memcpy_t2.asm.obj (.text)
                  00003888    00000098     rom_sysbios.aem3 : rom_sysbios.obj (.text:ti_sysbios_knl_Clock_workFuncDynamic__E)
                  00003920    00000096     rtsv7M3_T_le_eabi.lib : ull_div_t2.asm.obj (.text)
                  000039b6    00000092                           : fs_div_t2.asm.obj (.text)
                  00003a48    00000090     rom_sysbios.aem3 : rom_sysbios.obj (.text:ti_sysbios_family_arm_cc26xx_Timer_start__E)
                  00003ad8    00000086     rtsv7M3_T_le_eabi.lib : fd_cmp_t2.asm.obj (.text:__aeabi_cdcmple)
                  00003b5e    00000086                           : fd_cmp_t2.asm.obj (.text:__aeabi_cdrcmple)
                  00003be4    00000084     CC1350_LAUNCHXL_fxns.obj (.text:CC1350_LAUNCHXL_sendExtFlashByte)
                  00003c68    00000080     main_tirtos.obj (.text:SPItransfer)
                  00003ce8    0000007a     rtsv7M3_T_le_eabi.lib : fs_mul_t2.asm.obj (.text)
                  00003d62    0000007a                           : memset_t2.asm.obj (.text)
                  00003ddc    00000076     rom_sysbios.aem3 : rom_sysbios.obj (.text:ti_sysbios_heaps_HeapMem_allocUnprotected__E)
                  00003e52    00000002                      : rom_sysbios.obj (.text:xdc_runtime_SysCallback_defaultAbort)
                  00003e54    00000074     driverlib.lib : setup_rom.obj (.text:NOROM_SetupSetVddrLevel)
                  00003ec8    0000006e     rtsv7M3_T_le_eabi.lib : _printfi.c.obj (.text:_mcpy)
                  00003f36    00000002     rom_sysbios.aem3 : rom_sysbios.obj (.text:xdc_runtime_SysCallback_defaultExit)
                  00003f38    0000006c     drivers_cc13x0.aem3 : PowerCC26XX_calibrateRCOSC.oem3 (.text:PowerCC26XX_initiateCalibration)
                  00003fa4    00000068     driverlib.lib : setup_rom.obj (.text:NOROM_SetupGetTrimForAmpcompCtrl)
                  0000400c    00000068                   : setup_rom.obj (.text:NOROM_SetupGetTrimForAnabypassValue1)
                  00004074    00000068                   : sys_ctrl.obj (.text:NOROM_SysCtrlAdjustRechargeAfterPowerDown)
                  000040dc    00000068                   : sys_ctrl.obj (.text:NOROM_SysCtrl_DCDC_VoltageConditionalControl)
                  00004144    00000068     rtsv7M3_T_le_eabi.lib : copy_decompress_lzss.c.obj (.text:decompress:lzss:__TI_decompress_lzss)
                  000041ac    00000068     drivers_cc13x0.aem3 : PowerCC26XX.oem3 (.text:lfClockReadyCallback)
                  00004214    00000064     driverlib.lib : osc.obj (.text:NOROM_OSCHF_AttemptToSwitchToXosc)
                  00004278    00000064     drivers_cc13x0.aem3 : PowerCC26XX.oem3 (.text:configureXOSCHF)
                  000042dc    00000060     driverlib.lib : osc.obj (.text:NOROM_OSCClockSourceSet)
                  0000433c    00000060     drivers_cc13x0.aem3 : PowerCC26XX.oem3 (.text:PowerCC26XX_calibrate)
                  0000439c    0000005c                         : PowerCC26XX_calibrateRCOSC.oem3 (.text:PowerCC26XX_RCOSC_clockFunc)
                  000043f8    0000005c     rtsv7M3_T_le_eabi.lib : s_frexp.c.obj (.text:frexp)
                  00004454    0000005c     rom_sysbios.aem3 : rom_sysbios.obj (.text:ti_sysbios_heaps_HeapMem_initPrimary__I)
                  000044b0    0000005c     release_pem3.oem3 (.text:xdc_runtime_Startup_getState__I)
                  0000450c    00000058     drivers_cc13x0.aem3 : PINCC26XX.oem3 (.text:PIN_remove)
                  00004564    00000058     rom_sysbios.aem3 : rom_sysbios.obj (.text:ti_sysbios_heaps_HeapMem_alloc__E)
                  000045bc    00000056     rtsv7M3_T_le_eabi.lib : _printfi.c.obj (.text:_pconv_f)
                  00004612    00000054                           : _ltoa.c.obj (.text:__TI_ltoa)
                  00004666    00000052                           : _printfi.c.obj (.text:_ecpy)
                  000046b8    00000050     dpl_cc13x0.aem3 : ClockP_tirtos.oem3 (.text:ClockP_construct)
                  00004708    00000050     driverlib.lib : setup_rom.obj (.text:NOROM_SetupSetCacheModeAccordingToCcfgSetting)
                  00004758    0000004c     CC1350_LAUNCHXL_fxns.obj (.text:CC1350_LAUNCHXL_wakeUpExtFlash)
                  000047a4    0000004c     rtsv7M3_T_le_eabi.lib : atoi.c.obj (.text:atoi)
                  000047f0    0000004c     main_tirtos.obj (.text:clearDisplay)
                  0000483c    0000004c     rtsv7M3_T_le_eabi.lib : cpy_tbl.c.obj (.text:copy_in)
                  00004888    00000048                           : fd_toi_t2.asm.obj (.text)
                  000048d0    00000046     main_tirtos.obj (.text:drawString)
                  00004916    00000002     --HOLE-- [fill = 0]
                  00004918    00000044     boot.aem3 : boot.oem3 (.text)
                  0000495c    00000040     CC1350_LAUNCHXL_fxns.obj (.text:CC1350_LAUNCHXL_shutDownExtFlash)
                  0000499c    00000040     driverlib.lib : chipinfo.obj (.text:NOROM_ChipInfo_GetHwRevision)
                  000049dc    00000040     drivers_cc13x0.aem3 : PINCC26XX.oem3 (.text:PIN_swi)
                  00004a1c    00000040     rtsv7M3_T_le_eabi.lib : sprintf.c.obj (.text:sprintf)
                  00004a5c    00000040     rom_sysbios.aem3 : rom_sysbios.obj (.text:ti_sysbios_family_arm_cc26xx_Timer_setThreshold__I)
                  00004a9c    0000003e     dpl_cc13x0.aem3 : HwiP_tirtos.oem3 (.text:HwiP_construct)
                  00004ada    0000003e     rtsv7M3_T_le_eabi.lib : _printfi.c.obj (.text:_fcpy)
                  00004b18    0000003c     driverlib.lib : osc.obj (.text:NOROM_OSC_HPOSCRelativeFrequencyOffsetGet)
                  00004b54    0000003c     dpl_cc13x0.aem3 : SwiP_tirtos.oem3 (.text:SwiP_construct)
                  00004b90    0000003c     drivers_cc13x0.aem3 : PowerCC26XX.oem3 (.text:disableLfClkQualifiersEnableClkLoss)
                  00004bcc    0000003c     rom_sysbios.aem3 : rom_sysbios.obj (.text:ti_sysbios_family_arm_m3_Hwi_construct2__E)
                  00004c08    00000038     drivers_cc13x0.aem3 : PINCC26XX.oem3 (.text:PIN_setConfig)
                  00004c40    00000038                         : PINCC26XX.oem3 (.text:PIN_setOutputValue)
                  00004c78    00000038     rtsv7M3_T_le_eabi.lib : fs_toi_t2.asm.obj (.text)
                  00004cb0    00000038                           : i_tofs_t2.asm.obj (.text)
                  00004ce8    00000034     driverlib.lib : osc.obj (.text:NOROM_OSCHF_SwitchToRcOscTurnOffXosc)
                  00004d1c    00000034     drivers_cc13x0.aem3 : PowerCC26XX.oem3 (.text:Power_releaseConstraint)
                  00004d50    00000034     main_tirtos.obj (.text:delay)
                  00004d84    00000034     drivers_cc13x0.aem3 : PowerCC26XX.oem3 (.text:notify)
                  00004db8    00000034     rom_sysbios.aem3 : rom_sysbios.obj (.text:ti_sysbios_family_arm_cc26xx_Timer_initDevice__I)
                  00004dec    00000033     main_tirtos.obj (.text:drawNumber)
                  00004e1f    00000001     --HOLE-- [fill = 0]
                  00004e20    00000032     rom_sysbios.aem3 : rom_sysbios.obj (.text:ti_sysbios_family_arm_cc26xx_Timer_setNextTick__E)
                  00004e52    00000002     --HOLE-- [fill = 0]
                  00004e54    00000030     driverlib.lib : chipinfo.obj (.text:NOROM_ChipInfo_GetChipType)
                  00004e84    00000030                   : setup_rom.obj (.text:NOROM_SetupGetTrimForRadcExtCfg)
                  00004eb4    00000030                   : setup_rom.obj (.text:NOROM_SetupSetAonRtcSubSecInc)
                  00004ee4    00000030     drivers_cc13x0.aem3 : PowerCC26XX.oem3 (.text:Power_setConstraint)
                  00004f14    00000030     release_pem3.oem3 (.text:ti_sysbios_BIOS_atExitFunc__I)
                  00004f44    00000030     release_pem3.oem3 (.text:ti_sysbios_BIOS_startFunc__I)
                  00004f74    00000030     rom_sysbios.aem3 : rom_sysbios.obj (.text:ti_sysbios_family_arm_cc26xx_Timer_getCurrentTick__E)
                  00004fa4    0000002e     rtsv7M3_T_le_eabi.lib : i_tofd_t2.asm.obj (.text)
                  00004fd2    00000002     --HOLE-- [fill = 0]
                  00004fd4    0000002c     driverlib.lib : ddi.obj (.text:NOROM_DDI32RegWrite)
                  00005000    0000002c                   : osc.obj (.text:NOROM_OSCClockSourceGet)
                  0000502c    0000002c     dpl_cc13x0.aem3 : SemaphoreP_tirtos.oem3 (.text:SemaphoreP_constructBinary)
                  00005058    0000002c     rom_sysbios.aem3 : rom_sysbios.obj (.text:_pthread_delete$44)
                  00005084    0000002c                      : rom_sysbios.obj (.text:ti_sysbios_knl_Clock_getTicksUntilInterrupt__E)
                  000050b0    00000028     driverlib.lib : aon_batmon.obj (.text:NOROM_AONBatMonTemperatureGetDegC)
                  000050d8    00000028                   : adi.obj (.text:SafeHapiVoid)
                  00005100    00000024     drivers_cc13x0.aem3 : PINCC26XX.oem3 (.text:PINCC26XX_setIoCfgMux)
                  00005124    00000024     rom_sysbios.aem3 : rom_sysbios.obj (.text:_pthread_cleanupFxn)
                  00005148    00000024     rtsv7M3_T_le_eabi.lib : u_tofs_t2.asm.obj (.text)
                  0000516c    00000024     release_pem3.oem3 (.text:ti_sysbios_BIOS_registerRTSLock__I)
                  00005190    00000024     release_pem3.oem3 (.text:ti_sysbios_BIOS_removeRTSLock__I)
                  000051b4    00000024     rom_sysbios.aem3 : rom_sysbios.obj (.text:ti_sysbios_family_arm_cc26xx_Timer_getMaxTicks__E)
                  000051d8    00000022     rtsv7M3_T_le_eabi.lib : memccpy.c.obj (.text:memccpy)
                  000051fa    00000002     --HOLE-- [fill = 0]
                  000051fc    00000020     driverlib.lib : setup_rom.obj (.text:NOROM_SetupGetTrimForXoscHfCtl)
                  0000521c    00000020     main_tirtos.obj (.text:command)
                  0000523c    00000020     main_tirtos.obj (.text:data)
                  0000525c    00000020     release_pem3.oem3 (.text:ti_sysbios_BIOS_rtsLock__I)
                  0000527c    00000020     rom_sysbios.aem3 : rom_sysbios.obj (.text:ti_sysbios_family_arm_cc26xx_Timer_dynamicStub__E)
                  0000529c    00000020                      : rom_sysbios.obj (.text:ti_sysbios_knl_Clock_stop__E)
                  000052bc    00000020                      : rom_sysbios.obj (.text:xdc_runtime_Error_policyMin__E)
                  000052dc    0000001e     drivers_cc13x0.aem3 : PINCC26XX.oem3 (.text:PIN_close)
                  000052fa    0000001e                         : PowerCC26XX.oem3 (.text:Power_getTransitionLatency)
                  00005318    0000001c     CC1350_LAUNCHXL.obj (.text:CC1350_LAUNCHXL_initGeneral)
                  00005334    0000001c     driverlib.lib : chipinfo.obj (.text:NOROM_ChipInfo_GetChipFamily)
                  00005350    0000001c                   : setup_rom.obj (.text:NOROM_SetupGetTrimForAmpcompTh2)
                  0000536c    0000001c                   : setup_rom.obj (.text:NOROM_SetupGetTrimForRcOscLfRtuneCtuneTrim)
                  00005388    0000001c     drivers_cc13x0.aem3 : PINCC26XX.oem3 (.text:PIN_hwi)
                  000053a4    0000001c     rom_sysbios.aem3 : rom_sysbios.obj (.text:ti_sysbios_knl_Swi_construct2__E)
                  000053c0    00000018     driverlib.lib : aon_rtc.obj (.text:NOROM_AONRTCCurrentCompareValueGet)
                  000053d8    00000018                   : chipinfo.obj (.text:NOROM_ChipInfo_GetPackageType)
                  000053f0    00000018                   : osc.obj (.text:NOROM_OSCHF_TurnOnXosc)
                  00005408    00000018                   : setup_rom.obj (.text:NOROM_SetupGetTrimForAdcShModeEn)
                  00005420    00000018                   : setup_rom.obj (.text:NOROM_SetupGetTrimForAdcShVbufEn)
                  00005438    00000018                   : setup_rom.obj (.text:NOROM_SetupGetTrimForAmpcompTh1)
                  00005450    00000018                   : setup_rom.obj (.text:NOROM_SetupGetTrimForDblrLoopFilterResetVoltage)
                  00005468    00000018                   : setup_rom.obj (.text:NOROM_SetupGetTrimForRcOscLfIBiasTrim)
                  00005480    00000018                   : setup_rom.obj (.text:NOROM_SetupGetTrimForXoscLfRegulatorAndCmirrwrRatio)
                  00005498    00000018     dpl_cc13x0.aem3 : PowerCC26XX_tirtos.oem3 (.text:PowerCC26XX_schedulerDisable)
                  000054b0    00000018                     : PowerCC26XX_tirtos.oem3 (.text:PowerCC26XX_schedulerRestore)
                  000054c8    00000018     drivers_cc13x0.aem3 : PowerCC26XX.oem3 (.text:Power_idleFunc)
                  000054e0    00000018     rtsv7M3_T_le_eabi.lib : args_main.c.obj (.text:_args_main)
                  000054f8    00000018                           : sprintf.c.obj (.text:_outs)
                  00005510    00000018                           : ll_mul_t2.asm.obj (.text)
                  00005528    00000018     release_pem3.oem3 (.text:ti_sysbios_BIOS_rtsUnlock__I)
                  00005540    00000018     rom_sysbios.aem3 : rom_sysbios.obj (.text:ti_sysbios_knl_Swi_or__E)
                  00005558    00000018                      : rom_sysbios.obj (.text:ti_sysbios_rts_ti_ReentSupport_getReent__F)
                  00005570    00000016     driverlib.lib : chipinfo.obj (.text:NOROM_ThisLibraryIsFor_CC13x0_HwRev20AndLater_HaltIfViolated)
                  00005586    00000016     main_tirtos.obj (.text:setContrast)
                  0000559c    00000016     rtsv7M3_T_le_eabi.lib : strchr.c.obj (.text:strchr)
                  000055b2    00000016     release_pem3.oem3 (.text:ti_sysbios_BIOS_exitFunc__I)
                  000055c8    00000014     driverlib.lib : aon_rtc.obj (.text:NOROM_AONRTCCurrent64BitValueGet)
                  000055dc    00000014     drivers_cc13x0.aem3 : PowerCC26XX.oem3 (.text:configureRFCoreClocks)
                  000055f0    00000014     rtsv7M3_T_le_eabi.lib : strlen.c.obj (.text:strlen)
                  00005604    00000014     release_pem3.oem3 (.text:ti_sysbios_knl_Clock_doTick__I)
                  00005618    00000012     dpl_cc13x0.aem3 : SemaphoreP_tirtos.oem3 (.text:SemaphoreP_pend)
                  0000562a    00000012     rtsv7M3_T_le_eabi.lib : wcslen.c.obj (.text:wcslen)
                  0000563c    00000012     release_pem3.oem3 (.text:xdc_runtime_Startup_exec__I)
                  0000564e    00000010     dpl_cc13x0.aem3 : HwiP_tirtos.oem3 (.text:HwiP_Params_init)
                  0000565e    00000002     --HOLE-- [fill = 0]
                  00005660    00000010     driverlib.lib : setup_rom.obj (.text:NOROM_SetupGetTrimForXoscHfFastStart)
                  00005670    00000010                   : setup_rom.obj (.text:NOROM_SetupGetTrimForXoscHfIbiastherm)
                  00005680    00000010     drivers_cc13x0.aem3 : PINCC26XX.oem3 (.text:PINCC26XX_getPinCount)
                  00005690    00000010     dpl_cc13x0.aem3 : SwiP_tirtos.oem3 (.text:SwiP_Params_init)
                  000056a0    0000000e     driverlib.lib : vims.obj (.text:NOROM_VIMSModeGet)
                  000056ae    0000000e     rtsv7M3_T_le_eabi.lib : copy_decompress_none.c.obj (.text:decompress:none:__TI_decompress_none)
                  000056bc    0000000e     rom_sysbios.aem3 : rom_sysbios.obj (.text:ti_sysbios_family_arm_cc26xx_TimestampProvider_get32__E)
                  000056ca    0000000c     driverlib.lib : cpu.obj (.text:NOROM_CPUcpsid)
                  000056d6    0000000c                   : cpu.obj (.text:NOROM_CPUcpsie)
                  000056e2    0000000c                   : osc.obj (.text:NOROM_OSC_HPOSCRelativeFrequencyOffsetToRFCoreFormatConvert)
                  000056ee    00000002     --HOLE-- [fill = 0]
                  000056f0    0000000c     drivers_cc13x0.aem3 : PowerCC26XX.oem3 (.text:Power_getConstraintMask)
                  000056fc    0000000c                         : PowerCC26XX.oem3 (.text:Power_getDependencyCount)
                  00005708    0000000c     rtsv7M3_T_le_eabi.lib : _lock.c.obj (.text:_register_lock)
                  00005714    0000000c                           : _lock.c.obj (.text:_register_unlock)
                  00005720    0000000c                           : s_copysign.c.obj (.text:copysign)
                  0000572c    0000000c                           : copy_zero_init.c.obj (.text:decompress:ZI:__TI_zero_init)
                  00005738    0000000c     rom_sysbios.aem3 : rom_sysbios.obj (.text:ti_sysbios_BIOS_getThreadType__E)
                  00005744    0000000c                      : rom_sysbios.obj (.text:ti_sysbios_knl_Swi_getTrigger__E)
                  00005750    0000000c                      : rom_sysbios.obj (.text:xdc_runtime_Startup_rtsDone__E)
                  0000575c    0000000a     dpl_cc13x0.aem3 : ClockP_tirtos.oem3 (.text:ClockP_Params_init)
                  00005766    0000000a     rtsv7M3_T_le_eabi.lib : sprintf.c.obj (.text:_outc)
                  00005770    0000000a     release_pem3.oem3 (.text:ti_sysbios_rts_ti_ReentSupport_getTlsAddr__I)
                  0000577a    00000008     CC1350_LAUNCHXL_fxns.obj (.text:Board_initHook)
                  00005782    00000006     driverlib.lib : cpu.obj (.text:NOROM_CPUdelay)
                  00005788    00000004     dpl_cc13x0.aem3 : ClockP_tirtos.oem3 (.text:ClockP_setTimeout)
                  0000578c    00000004                     : ClockP_tirtos.oem3 (.text:ClockP_start)
                  00005790    00000004                     : ClockP_tirtos.oem3 (.text:ClockP_stop)
                  00005794    00000004                     : HwiP_tirtos.oem3 (.text:HwiP_disable)
                  00005798    00000004                     : SemaphoreP_tirtos.oem3 (.text:SemaphoreP_post)
                  0000579c    00000004                     : SwiP_tirtos.oem3 (.text:SwiP_disable)
                  000057a0    00000004                     : SwiP_tirtos.oem3 (.text:SwiP_getTrigger)
                  000057a4    00000004                     : SwiP_tirtos.oem3 (.text:SwiP_or)
                  000057a8    00000004     rom_sysbios.aem3 : rom_sysbios.obj (.text:__aeabi_errno_addr)
                  000057ac    00000004     drivers_cc13x0.aem3 : PowerCC26XX.oem3 (.text:nopResourceHandler)
                  000057b0    00000004     rom_sysbios.aem3 : rom_sysbios.obj (.text:ti_sysbios_family_arm_cc26xx_Timer_getCount64__E)
                  000057b4    00000004     release_pem3.oem3 (.text:xdc_runtime_Startup_reset__I)
                  000057b8    00000008     (.tramp.ti_sysbios_knl_Semaphore_post__E.1)
                  000057c0    00000008     (.tramp.ti_sysbios_family_arm_m3_Hwi_disableFxn__E.1)
                  000057c8    00000008     (.tramp.ti_sysbios_knl_Task_self__E.1)
                  000057d0    00000008     (.tramp.xdc_runtime_Startup_startMods__I.1)
                  000057d8    00000008     (.tramp.ti_sysbios_knl_Semaphore_pend__E.1)
                  000057e0    00000008     (.tramp.ti_sysbios_knl_Clock_logTick__E.1)
                  000057e8    00000008     (.tramp.ti_sysbios_knl_Swi_post__E.1)
                  000057f0    00000008     (.tramp.ti_sysbios_BIOS_RtsGateProxy_leave__E.1)
                  000057f8    00000008     (.tramp.ti_sysbios_knl_Swi_construct.1)
                  00005800    00000008     (.tramp.ti_sysbios_BIOS_RtsGateProxy_enter__E.1)
                  00005808    00000008     (.tramp.ti_sysbios_knl_Task_restore__E.1)
                  00005810    00000008     (.tramp.xdc_runtime_Memory_free__E.1)
                  00005818    00000008     (.tramp.ti_sysbios_knl_Task_delete.1)
                  00005820    00000008     (.tramp.ti_sysbios_knl_Semaphore_destruct.1)
                  00005828    00000008     (.tramp.ti_sysbios_knl_Semaphore_construct.1)
                  00005830    00000008     (.tramp.ti_sysbios_knl_Semaphore_Params__init__S.1)
                  00005838    00000008     (.tramp.ti_sysbios_knl_Task_startup__E.1)
                  00005840    00000008     (.tramp.ti_sysbios_knl_Swi_startup__E.1)
                  00005848    00000008     (.tramp.ti_sysbios_hal_Hwi_startup__E.1)
                  00005850    00000008     (.tramp.ti_sysbios_family_arm_cc26xx_Timer_startup__E.1)
                  00005858    00000008     (.tramp.xdc_runtime_System_atexit__E.1)
                  00005860    00000008     (.tramp.ti_sysbios_BIOS_setThreadType__E.1)
                  00005868    00000008     (.tramp.ti_sysbios_knl_Task_disable__E.1)
                  00005870    00000008     (.tramp.ti_sysbios_knl_Swi_disable__E.1)
                  00005878    00000008     (.tramp.ti_sysbios_family_arm_m3_Hwi_construct.1)
                  00005880    00000008     (.tramp.ti_sysbios_knl_Swi_Params__init__S.1)
                  00005888    00000008     (.tramp.ti_sysbios_family_arm_m3_Hwi_Params__init__S.1)
                  00005890    00000008     (.tramp.xdc_runtime_System_exit__E.1)
                  00005898    00000008     (.tramp.ti_sysbios_knl_Clock_construct.1)
                  000058a0    00000008     (.tramp.ti_sysbios_knl_Clock_Params__init__S.1)
                  000058a8    00000008     (.tramp.xdc_runtime_Error_raiseX__E.1)
                  000058b0    00000008     (.tramp.ti_sysbios_heaps_HeapMem_Module_GateProxy_leave__E.1)
                  000058b8    00000008     (.tramp.ti_sysbios_heaps_HeapMem_Module_GateProxy_enter__E.1)
                  000058c0    00000008     (.tramp.ti_sysbios_heaps_HeapMem_restore__E.1)
                  000058c8    00000008     (.tramp.ti_sysbios_heaps_HeapMem_Object__get__S.1)
                  000058d0    00000008     (.tramp.ti_sysbios_knl_Clock_scheduleNextTick__E.1)
                  000058d8    00000008     (.tramp.ti_sysbios_knl_Clock_walkQueueDynamic__E.1)
                  000058e0    00000008     (.tramp.ti_sysbios_knl_Clock_TimerProxy_getCurrentTick__E.1)
                  000058e8    00000008     (.tramp.ti_sysbios_knl_Clock_start__E.1)
                  000058f0    00000008     (.tramp.ti_sysbios_knl_Clock_setTimeout__E.1)
                  000058f8    00000008     (.tramp.ti_sysbios_family_arm_m3_Hwi_restoreFxn__E.1)
                  00005900    00000008     (.tramp.ti_sysbios_knl_Swi_restore__E.1)

.const     0    00005908    00000768     
                  00005908    000004fb     main_tirtos.obj (.const:Font)
                  00005e03    00000101     rtsv7M3_T_le_eabi.lib : ctype.c.obj (.const:.string:_ctypes_)
                  00005f04    0000004c     drivers_cc13x0.aem3 : PowerCC26XX.oem3 (.const:resourceDB)
                  00005f50    00000048     release_pem3.oem3 (.const:.string)
                  00005f98    00000034     CC1350_LAUNCHXL.obj (.const:BoardGpioInitTable)
                  00005fcc    00000024     release_pem3.oem3 (.const:xdc_runtime_Startup_sfxnTab__A)
                  00005ff0    00000018     CC1350_LAUNCHXL.obj (.const:PowerCC26XX_config)
                  00006008    00000014     CC1350_LAUNCHXL_fxns.obj (.const:$P$T1$2)
                  0000601c    00000012     release_pem3.oem3 (.const:xdc_runtime_Startup_sfxnRts__A)
                  0000602e    00000001     release_pem3.oem3 (.const:xdc_runtime_Text_charTab__A)
                  0000602f    00000001     --HOLE-- [fill = 0]
                  00006030    0000000c     release_pem3.oem3 (.const:xdc_runtime_Startup_firstFxns__A)
                  0000603c    00000008     CC1350_LAUNCHXL_fxns.obj (.const:$P$T0$1)
                  00006044    00000008     CC1350_LAUNCHXL.obj (.const:PINCC26XX_hwAttrs)
                  0000604c    00000008     release_pem3.oem3 (.const:ti_sysbios_knl_Idle_funcList__A)
                  00006054    00000004     release_pem3.oem3 (.const:ti_sysbios_family_arm_cc26xx_Timer_funcHookCH1__C)
                  00006058    00000004     release_pem3.oem3 (.const:ti_sysbios_family_arm_cc26xx_Timer_funcHookCH2__C)
                  0000605c    00000004     release_pem3.oem3 (.const:ti_sysbios_heaps_HeapMem_primaryHeapBaseAddr__C)
                  00006060    00000004     release_pem3.oem3 (.const:ti_sysbios_heaps_HeapMem_primaryHeapEndAddr__C)
                  00006064    00000004     release_pem3.oem3 (.const:ti_sysbios_knl_Clock_tickPeriod__C)
                  00006068    00000004     release_pem3.oem3 (.const:ti_sysbios_knl_Clock_triggerClock__C)
                  0000606c    00000004     release_pem3.oem3 (.const:ti_sysbios_knl_Task_Object__heap__C)

MODULE SUMMARY

       Module                            code    ro data   rw data
       ------                            ----    -------   -------
    .\
       main_tirtos.obj                   2063    1275      8248   
       CC1350_LAUNCHXL_fxns.obj          280     28        0      
       CC1350_LAUNCHXL.obj               36      84        0      
       ccfg.obj                          0       88        0      
    +--+---------------------------------+-------+---------+---------+
       Total:                            2379    1475      8248   
                                                                  
    C:\Users\lutfi yildirim\workspace_v11\tirtos_builds_CC1350_LAUNCHXL_release_ccs\Debug\configPkg\package\cfg\
       release_pem3.oem3                 392     1487      1770   
    +--+---------------------------------+-------+---------+---------+
       Total:                            392     1487      1770   
                                                                  
    C:/ti/simplelink_cc13x0_sdk_4_20_02_07/kernel/tirtos/packages/ti/dpl/lib/dpl_cc13x0.aem3
       PowerCC26XX_tirtos.oem3           280     0         8      
       ClockP_tirtos.oem3                102     0         4      
       SwiP_tirtos.oem3                  88      0         0      
       HwiP_tirtos.oem3                  82      0         0      
       SemaphoreP_tirtos.oem3            66      0         0      
    +--+---------------------------------+-------+---------+---------+
       Total:                            618     0         12     
                                                                  
    C:/ti/simplelink_cc13x0_sdk_4_20_02_07/source/ti/devices/cc13x0/driverlib/bin/ccs/driverlib.lib
       setup_rom.obj                     1468    0         0      
       sys_ctrl.obj                      776     0         8      
       osc.obj                           388     0         20     
       setup.obj                         368     0         0      
       chipinfo.obj                      186     0         0      
       aon_rtc.obj                       44      0         0      
       ddi.obj                           44      0         0      
       adi.obj                           40      0         0      
       aon_batmon.obj                    40      0         0      
       cpu.obj                           30      0         0      
       vims.obj                          14      0         0      
       driverlib_release.obj             0       0         1      
    +--+---------------------------------+-------+---------+---------+
       Total:                            3398    0         29     
                                                                  
    C:/ti/simplelink_cc13x0_sdk_4_20_02_07/source/ti/drivers/lib/drivers_cc13x0.aem3
       PowerCC26XX.oem3                  1972    76        276    
       PINCC26XX.oem3                    1238    0         276    
       PowerCC26XX_calibrateRCOSC.oem3   1380    0         0      
    +--+---------------------------------+-------+---------+---------+
       Total:                            4590    76        552    
                                                                  
    C:\Users\lutfi yildirim\workspace_v11\tirtos_builds_CC1350_LAUNCHXL_release_ccs\src\sysbios\rom_sysbios.aem3
       rom_sysbios.obj                   1266    0         136    
    +--+---------------------------------+-------+---------+---------+
       Total:                            1266    0         136    
                                                                  
    C:\ti\ccs1110\ccs\tools\compiler\ti-cgt-arm_20.2.7.LTS\lib\rtsv7M3_T_le_eabi.lib
       _printfi.c.obj                    4827    0         0      
       fd_add_t2.asm.obj                 438     0         0      
       fd_div_t2.asm.obj                 310     0         0      
       fd_cmp_t2.asm.obj                 268     0         0      
       ctype.c.obj                       0       257       0      
       fd_mul_t2.asm.obj                 252     0         0      
       fs_add_t2.asm.obj                 250     0         0      
       s_scalbn.c.obj                    208     0         0      
       memcpy_t2.asm.obj                 156     0         0      
       ull_div_t2.asm.obj                150     0         0      
       fs_div_t2.asm.obj                 146     0         0      
       fs_mul_t2.asm.obj                 122     0         0      
       memset_t2.asm.obj                 122     0         0      
       copy_decompress_lzss.c.obj        104     0         0      
       sprintf.c.obj                     98      0         0      
       s_frexp.c.obj                     92      0         0      
       _ltoa.c.obj                       84      0         0      
       atoi.c.obj                        76      0         0      
       cpy_tbl.c.obj                     76      0         0      
       fd_toi_t2.asm.obj                 72      0         0      
       fs_toi_t2.asm.obj                 56      0         0      
       i_tofs_t2.asm.obj                 56      0         0      
       i_tofd_t2.asm.obj                 46      0         0      
       u_tofs_t2.asm.obj                 36      0         0      
       _lock.c.obj                       26      0         8      
       memccpy.c.obj                     34      0         0      
       args_main.c.obj                   24      0         0      
       ll_mul_t2.asm.obj                 24      0         0      
       strchr.c.obj                      22      0         0      
       strlen.c.obj                      20      0         0      
       wcslen.c.obj                      18      0         0      
       copy_decompress_none.c.obj        14      0         0      
       copy_zero_init.c.obj              12      0         0      
       s_copysign.c.obj                  12      0         0      
       stkdepth_vars.c.obj               0       0         4      
       div0.asm.obj                      2       0         0      
    +--+---------------------------------+-------+---------+---------+
       Total:                            8253    257       12     
                                                                  
    C:\ti\simplelink_cc13x0_sdk_4_20_02_07\kernel\tirtos\packages\ti\targets\arm\rtsarm\lib\auto_init.aem3
       auto_init.oem3                    160     0         0      
    +--+---------------------------------+-------+---------+---------+
       Total:                            160     0         0      
                                                                  
    C:\ti\simplelink_cc13x0_sdk_4_20_02_07\kernel\tirtos\packages\ti\targets\arm\rtsarm\lib\boot.aem3
       boot.oem3                         68      0         0      
    +--+---------------------------------+-------+---------+---------+
       Total:                            68      0         0      
                                                                  
       Stack:                            0       0         1024   
       Linker Generated:                 336     608       0      
    +--+---------------------------------+-------+---------+---------+
       Grand Total:                      21460   3903      11783  


LINKER GENERATED COPY TABLES

__TI_cinit_table @ 00006278 records: 12, size/record: 8, table size: 96
	.data: load addr=00006070, load size=0000012c bytes, run addr=20003518, run size=00000532 bytes, compression=lzss
	.data:ti_sysbios_family_arm_m3_Hwi_Module__state__V: load addr=0000619c, load size=00000028 bytes, run addr=20000144, run size=00000034 bytes, compression=lzss
	.data:ti_sysbios_knl_Task_Module__state__V: load addr=000061c4, load size=00000021 bytes, run addr=20000100, run size=00000044 bytes, compression=lzss
	.data:ti_sysbios_BIOS_Module__state__V: load addr=000061e5, load size=0000001e bytes, run addr=200001a4, run size=00000024 bytes, compression=lzss
	.data:ti_sysbios_knl_Clock_Module__state__V: load addr=00006203, load size=0000001d bytes, run addr=20000178, run size=0000002c bytes, compression=lzss
	.data:ti_sysbios_knl_Swi_Module__state__V: load addr=00006220, load size=00000010 bytes, run addr=200001c8, run size=0000001c bytes, compression=lzss
	.data:ti_sysbios_family_arm_cc26xx_Timer_Module__state__V: load addr=0000623c, load size=0000000b bytes, run addr=200001e4, run size=00000008 bytes, compression=lzss
	.data:xdc_runtime_System_Module__state__V: load addr=00006247, load size=0000000b bytes, run addr=200001f8, run size=00000008 bytes, compression=lzss
	.bss: load addr=00006258, load size=00000008 bytes, run addr=20000208, run size=00002309 bytes, compression=zero_init
	.data:xdc_runtime_Memory_Module__state__V: load addr=00006260, load size=00000008 bytes, run addr=20000200, run size=00000004 bytes, compression=lzss
	.data:ti_sysbios_family_arm_cc26xx_TimestampProvider_Module__state__V: load addr=00006268, load size=00000007 bytes, run addr=200001ec, run size=00000004 bytes, compression=lzss
	.data:xdc_runtime_Startup_Module__state__V: load addr=0000626f, load size=00000007 bytes, run addr=200001f0, run size=00000008 bytes, compression=lzss


LINKER GENERATED HANDLER TABLE

__TI_handler_table @ 00006230 records: 3, size/record: 4, table size: 12
	index: 0, handler: __TI_decompress_lzss
	index: 1, handler: __TI_decompress_none
	index: 2, handler: __TI_zero_init


FAR CALL TRAMPOLINES

callee name               trampoline name
   callee addr  tramp addr   call addr  call info
--------------  -----------  ---------  ----------------
ti_sysbios_knl_Semaphore_post__E  $Tramp$TT$L$PI$$ti_sysbios_knl_Semaphore_post__E
   1001ac41     000057b8     00005798   dpl_cc13x0.aem3 : SemaphoreP_tirtos.oem3 (.text:SemaphoreP_post)
ti_sysbios_family_arm_m3_Hwi_disableFxn__E  $Tramp$TT$L$PI$$ti_sysbios_family_arm_m3_Hwi_disableFxn__E
   1001c145     000057c0     00005794   dpl_cc13x0.aem3 : HwiP_tirtos.oem3 (.text:HwiP_disable)
ti_sysbios_knl_Task_self__E  $Tramp$TT$L$PI$$ti_sysbios_knl_Task_self__E
   1001c1e1     000057c8     00005772   release_pem3.oem3 (.text:ti_sysbios_rts_ti_ReentSupport_getTlsAddr__I)
xdc_runtime_Startup_startMods__I  $Tramp$TT$L$PI$$xdc_runtime_Startup_startMods__I
   1001c309     000057d0     00005646   release_pem3.oem3 (.text:xdc_runtime_Startup_exec__I)
ti_sysbios_knl_Semaphore_pend__E  $Tramp$TT$L$PI$$ti_sysbios_knl_Semaphore_pend__E
   1001a001     000057d8     0000561a   dpl_cc13x0.aem3 : SemaphoreP_tirtos.oem3 (.text:SemaphoreP_pend)
ti_sysbios_knl_Clock_logTick__E  $Tramp$TT$L$PI$$ti_sysbios_knl_Clock_logTick__E
   1001be63     000057e0     00005606   release_pem3.oem3 (.text:ti_sysbios_knl_Clock_doTick__I)
ti_sysbios_knl_Swi_post__E  $Tramp$TT$L$PI$$ti_sysbios_knl_Swi_post__E
   1001b31d     000057e8     00005554   rom_sysbios.aem3 : rom_sysbios.obj (.text:ti_sysbios_knl_Swi_or__E)
                             0000560e   release_pem3.oem3 (.text:ti_sysbios_knl_Clock_doTick__I)
ti_sysbios_BIOS_RtsGateProxy_leave__E  $Tramp$TT$L$PI$$ti_sysbios_BIOS_RtsGateProxy_leave__E
   1001c249     000057f0     00005536   release_pem3.oem3 (.text:ti_sysbios_BIOS_rtsUnlock__I)
ti_sysbios_knl_Swi_construct  $Tramp$TT$L$PI$$ti_sysbios_knl_Swi_construct
   1001b085     000057f8     000053aa   rom_sysbios.aem3 : rom_sysbios.obj (.text:ti_sysbios_knl_Swi_construct2__E)
ti_sysbios_BIOS_RtsGateProxy_enter__E  $Tramp$TT$L$PI$$ti_sysbios_BIOS_RtsGateProxy_enter__E
   1001c245     00005800     00005262   release_pem3.oem3 (.text:ti_sysbios_BIOS_rtsLock__I)
ti_sysbios_knl_Task_restore__E  $Tramp$TT$L$PI$$ti_sysbios_knl_Task_restore__E
   1001ba45     00005808     00005134   rom_sysbios.aem3 : rom_sysbios.obj (.text:_pthread_cleanupFxn)
                             000054bc   dpl_cc13x0.aem3 : PowerCC26XX_tirtos.oem3 (.text:PowerCC26XX_schedulerRestore)
xdc_runtime_Memory_free__E  $Tramp$TT$L$PI$$xdc_runtime_Memory_free__E
   1001c7fd     00005810     00005078   rom_sysbios.aem3 : rom_sysbios.obj (.text:_pthread_delete$44)
ti_sysbios_knl_Task_delete  $Tramp$TT$L$PI$$ti_sysbios_knl_Task_delete
   1001c2fd     00005818     0000506c   rom_sysbios.aem3 : rom_sysbios.obj (.text:_pthread_delete$44)
ti_sysbios_knl_Semaphore_destruct  $Tramp$TT$L$PI$$ti_sysbios_knl_Semaphore_destruct
   1001c2dd     00005820     00005060   rom_sysbios.aem3 : rom_sysbios.obj (.text:_pthread_delete$44)
ti_sysbios_knl_Semaphore_construct  $Tramp$TT$L$PI$$ti_sysbios_knl_Semaphore_construct
   1001b705     00005828     0000504e   dpl_cc13x0.aem3 : SemaphoreP_tirtos.oem3 (.text:SemaphoreP_constructBinary)
ti_sysbios_knl_Semaphore_Params__init__S  $Tramp$TT$L$PI$$ti_sysbios_knl_Semaphore_Params__init__S
   1001c1bd     00005830     0000503e   dpl_cc13x0.aem3 : SemaphoreP_tirtos.oem3 (.text:SemaphoreP_constructBinary)
ti_sysbios_knl_Task_startup__E  $Tramp$TT$L$PI$$ti_sysbios_knl_Task_startup__E
   1001c305     00005838     00004f68   release_pem3.oem3 (.text:ti_sysbios_BIOS_startFunc__I)
ti_sysbios_knl_Swi_startup__E  $Tramp$TT$L$PI$$ti_sysbios_knl_Swi_startup__E
   1001c239     00005840     00004f64   release_pem3.oem3 (.text:ti_sysbios_BIOS_startFunc__I)
ti_sysbios_hal_Hwi_startup__E  $Tramp$TT$L$PI$$ti_sysbios_hal_Hwi_startup__E
   1001c289     00005848     00004f60   release_pem3.oem3 (.text:ti_sysbios_BIOS_startFunc__I)
ti_sysbios_family_arm_cc26xx_Timer_startup__E  $Tramp$TT$L$PI$$ti_sysbios_family_arm_cc26xx_Timer_startup__E
   1001b791     00005850     00004f5c   release_pem3.oem3 (.text:ti_sysbios_BIOS_startFunc__I)
xdc_runtime_System_atexit__E  $Tramp$TT$L$PI$$xdc_runtime_System_atexit__E
   1001c67d     00005858     00004f54   release_pem3.oem3 (.text:ti_sysbios_BIOS_startFunc__I)
ti_sysbios_BIOS_setThreadType__E  $Tramp$TT$L$PI$$ti_sysbios_BIOS_setThreadType__E
   1001c041     00005860     00004f20   release_pem3.oem3 (.text:ti_sysbios_BIOS_atExitFunc__I)
                             000055bc   release_pem3.oem3 (.text:ti_sysbios_BIOS_exitFunc__I)
ti_sysbios_knl_Task_disable__E  $Tramp$TT$L$PI$$ti_sysbios_knl_Task_disable__E
   1001c0f1     00005868     00004f1a   release_pem3.oem3 (.text:ti_sysbios_BIOS_atExitFunc__I)
                             00005126   rom_sysbios.aem3 : rom_sysbios.obj (.text:_pthread_cleanupFxn)
                             0000549a   dpl_cc13x0.aem3 : PowerCC26XX_tirtos.oem3 (.text:PowerCC26XX_schedulerDisable)
ti_sysbios_knl_Swi_disable__E  $Tramp$TT$L$PI$$ti_sysbios_knl_Swi_disable__E
   1001c0d1     00005870     00004f16   release_pem3.oem3 (.text:ti_sysbios_BIOS_atExitFunc__I)
                             000054a2   dpl_cc13x0.aem3 : PowerCC26XX_tirtos.oem3 (.text:PowerCC26XX_schedulerDisable)
                             0000579c                   : SwiP_tirtos.oem3 (.text:SwiP_disable)
ti_sysbios_family_arm_m3_Hwi_construct  $Tramp$TT$L$PI$$ti_sysbios_family_arm_m3_Hwi_construct
   1001af29     00005878     00004be6   rom_sysbios.aem3 : rom_sysbios.obj (.text:ti_sysbios_family_arm_m3_Hwi_construct2__E)
ti_sysbios_knl_Swi_Params__init__S  $Tramp$TT$L$PI$$ti_sysbios_knl_Swi_Params__init__S
   1001c1c9     00005880     00004b6e   dpl_cc13x0.aem3 : SwiP_tirtos.oem3 (.text:SwiP_construct)
ti_sysbios_family_arm_m3_Hwi_Params__init__S  $Tramp$TT$L$PI$$ti_sysbios_family_arm_m3_Hwi_Params__init__S
   1001c139     00005888     00004ab8   dpl_cc13x0.aem3 : HwiP_tirtos.oem3 (.text:HwiP_construct)
xdc_runtime_System_exit__E  $Tramp$TT$L$PI$$xdc_runtime_System_exit__E
   1001c7cd     00005890     00004944   boot.aem3 : boot.oem3 (.text)
                             000055c2   release_pem3.oem3 (.text:ti_sysbios_BIOS_exitFunc__I)
ti_sysbios_knl_Clock_construct  $Tramp$TT$L$PI$$ti_sysbios_knl_Clock_construct
   1001b575     00005898     000046ee   dpl_cc13x0.aem3 : ClockP_tirtos.oem3 (.text:ClockP_construct)
ti_sysbios_knl_Clock_Params__init__S  $Tramp$TT$L$PI$$ti_sysbios_knl_Clock_Params__init__S
   1001c181     000058a0     000046d4   dpl_cc13x0.aem3 : ClockP_tirtos.oem3 (.text:ClockP_construct)
xdc_runtime_Error_raiseX__E  $Tramp$TT$L$PI$$xdc_runtime_Error_raiseX__E
   1001c765     000058a8     000045a4   rom_sysbios.aem3 : rom_sysbios.obj (.text:ti_sysbios_heaps_HeapMem_alloc__E)
ti_sysbios_heaps_HeapMem_Module_GateProxy_leave__E  $Tramp$TT$L$PI$$ti_sysbios_heaps_HeapMem_Module_GateProxy_leave__E
   1001c29d     000058b0     0000458a   rom_sysbios.aem3 : rom_sysbios.obj (.text:ti_sysbios_heaps_HeapMem_alloc__E)
ti_sysbios_heaps_HeapMem_Module_GateProxy_enter__E  $Tramp$TT$L$PI$$ti_sysbios_heaps_HeapMem_Module_GateProxy_enter__E
   1001c299     000058b8     00004574   rom_sysbios.aem3 : rom_sysbios.obj (.text:ti_sysbios_heaps_HeapMem_alloc__E)
ti_sysbios_heaps_HeapMem_restore__E  $Tramp$TT$L$PI$$ti_sysbios_heaps_HeapMem_restore__E
   1001c101     000058c0     00004498   rom_sysbios.aem3 : rom_sysbios.obj (.text:ti_sysbios_heaps_HeapMem_initPrimary__I)
ti_sysbios_heaps_HeapMem_Object__get__S  $Tramp$TT$L$PI$$ti_sysbios_heaps_HeapMem_Object__get__S
   1001b86d     000058c8     00004468   rom_sysbios.aem3 : rom_sysbios.obj (.text:ti_sysbios_heaps_HeapMem_initPrimary__I)
ti_sysbios_knl_Clock_scheduleNextTick__E  $Tramp$TT$L$PI$$ti_sysbios_knl_Clock_scheduleNextTick__E
   1001beb9     000058d0     00003904   rom_sysbios.aem3 : rom_sysbios.obj (.text:ti_sysbios_knl_Clock_workFuncDynamic__E)
ti_sysbios_knl_Clock_walkQueueDynamic__E  $Tramp$TT$L$PI$$ti_sysbios_knl_Clock_walkQueueDynamic__E
   1001a809     000058d8     000038ce   rom_sysbios.aem3 : rom_sysbios.obj (.text:ti_sysbios_knl_Clock_workFuncDynamic__E)
                             000038e8                    : rom_sysbios.obj (.text:ti_sysbios_knl_Clock_workFuncDynamic__E)
ti_sysbios_knl_Clock_TimerProxy_getCurrentTick__E  $Tramp$TT$L$PI$$ti_sysbios_knl_Clock_TimerProxy_getCurrentTick__E
   1001c091     000058e0     0000389e   rom_sysbios.aem3 : rom_sysbios.obj (.text:ti_sysbios_knl_Clock_workFuncDynamic__E)
                             00005096                    : rom_sysbios.obj (.text:ti_sysbios_knl_Clock_getTicksUntilInterrupt__E)
ti_sysbios_knl_Clock_start__E  $Tramp$TT$L$PI$$ti_sysbios_knl_Clock_start__E
   1001bfdf     000058e8     00002fb4   dpl_cc13x0.aem3 : PowerCC26XX_tirtos.oem3 (.text:PowerCC26XX_standbyPolicy)
                             000052ae   rom_sysbios.aem3 : rom_sysbios.obj (.text:ti_sysbios_knl_Clock_stop__E)
                             0000578c   dpl_cc13x0.aem3 : ClockP_tirtos.oem3 (.text:ClockP_start)
ti_sysbios_knl_Clock_setTimeout__E  $Tramp$TT$L$PI$$ti_sysbios_knl_Clock_setTimeout__E
   1001c2bd     000058f0     00002fae   dpl_cc13x0.aem3 : PowerCC26XX_tirtos.oem3 (.text:PowerCC26XX_standbyPolicy)
                             00005788                   : ClockP_tirtos.oem3 (.text:ClockP_setTimeout)
ti_sysbios_family_arm_m3_Hwi_restoreFxn__E  $Tramp$TT$L$PI$$ti_sysbios_family_arm_m3_Hwi_restoreFxn__E
   1001c215     000058f8     00002bf6   drivers_cc13x0.aem3 : PINCC26XX.oem3 (.text:PINCC26XX_setIoCfg)
                             00002c40                       : PINCC26XX.oem3 (.text:PINCC26XX_setIoCfg)
                             0000333a                       : PowerCC26XX.oem3 (.text:Power_releaseDependency)
                             000033f0                       : PowerCC26XX.oem3 (.text:Power_setDependency)
                             0000368e                       : PowerCC26XX.oem3 (.text:switchXOSCHFclockFunc)
                             00003f5e                       : PowerCC26XX_calibrateRCOSC.oem3 (.text:PowerCC26XX_initiateCalibration)
                             00004d42                       : PowerCC26XX.oem3 (.text:Power_releaseConstraint)
                             00004f08                       : PowerCC26XX.oem3 (.text:Power_setConstraint)
ti_sysbios_knl_Swi_restore__E  $Tramp$TT$L$PI$$ti_sysbios_knl_Swi_restore__E
   1001b5dd     00005900     000018ec   drivers_cc13x0.aem3 : PowerCC26XX.oem3 (.text:Power_sleep)
                             000054b6   dpl_cc13x0.aem3 : PowerCC26XX_tirtos.oem3 (.text:PowerCC26XX_schedulerRestore)

[42 trampolines]
[63 trampoline calls]


GLOBAL SYMBOLS: SORTED ALPHABETICALLY BY Name 

address   name                                                                      
-------   ----                                                                      
00005f98  BoardGpioInitTable                                                        
00000ff9  Board_init                                                                
0000577b  Board_initHook                                                            
00005319  CC1350_LAUNCHXL_initGeneral                                               
00003be5  CC1350_LAUNCHXL_sendExtFlashByte                                          
0000495d  CC1350_LAUNCHXL_shutDownExtFlash                                          
00004759  CC1350_LAUNCHXL_wakeUpExtFlash                                            
0000575d  ClockP_Params_init                                                        
000046b9  ClockP_construct                                                          
1001b6d5  ClockP_getSystemTicks                                                     
00005789  ClockP_setTimeout                                                         
0000578d  ClockP_start                                                              
00005791  ClockP_stop                                                               
2000250c  ClockP_tickPeriod                                                         
00001000  HEAPSIZE                                                                  
0000564f  HwiP_Params_init                                                          
00004a9d  HwiP_construct                                                            
00005795  HwiP_disable                                                              
1001c215  HwiP_restore                                                              
000050b1  NOROM_AONBatMonTemperatureGetDegC                                         
000055c9  NOROM_AONRTCCurrent64BitValueGet                                          
000053c1  NOROM_AONRTCCurrentCompareValueGet                                        
000056cb  NOROM_CPUcpsid                                                            
000056d7  NOROM_CPUcpsie                                                            
00005783  NOROM_CPUdelay                                                            
00005335  NOROM_ChipInfo_GetChipFamily                                              
00004e55  NOROM_ChipInfo_GetChipType                                                
0000499d  NOROM_ChipInfo_GetHwRevision                                              
000053d9  NOROM_ChipInfo_GetPackageType                                             
00004fd5  NOROM_DDI32RegWrite                                                       
00005001  NOROM_OSCClockSourceGet                                                   
000042dd  NOROM_OSCClockSourceSet                                                   
00004215  NOROM_OSCHF_AttemptToSwitchToXosc                                         
00004ce9  NOROM_OSCHF_SwitchToRcOscTurnOffXosc                                      
000053f1  NOROM_OSCHF_TurnOnXosc                                                    
00004b19  NOROM_OSC_HPOSCRelativeFrequencyOffsetGet                                 
000056e3  NOROM_OSC_HPOSCRelativeFrequencyOffsetToRFCoreFormatConvert               
00003565  NOROM_SetupAfterColdResetWakeupFromShutDownCfg1                           
00002e6d  NOROM_SetupAfterColdResetWakeupFromShutDownCfg2                           
000026f1  NOROM_SetupAfterColdResetWakeupFromShutDownCfg3                           
00005409  NOROM_SetupGetTrimForAdcShModeEn                                          
00005421  NOROM_SetupGetTrimForAdcShVbufEn                                          
00003fa5  NOROM_SetupGetTrimForAmpcompCtrl                                          
00005439  NOROM_SetupGetTrimForAmpcompTh1                                           
00005351  NOROM_SetupGetTrimForAmpcompTh2                                           
0000400d  NOROM_SetupGetTrimForAnabypassValue1                                      
00005451  NOROM_SetupGetTrimForDblrLoopFilterResetVoltage                           
00004e85  NOROM_SetupGetTrimForRadcExtCfg                                           
00005469  NOROM_SetupGetTrimForRcOscLfIBiasTrim                                     
0000536d  NOROM_SetupGetTrimForRcOscLfRtuneCtuneTrim                                
000051fd  NOROM_SetupGetTrimForXoscHfCtl                                            
00005661  NOROM_SetupGetTrimForXoscHfFastStart                                      
00005671  NOROM_SetupGetTrimForXoscHfIbiastherm                                     
00005481  NOROM_SetupGetTrimForXoscLfRegulatorAndCmirrwrRatio                       
00004eb5  NOROM_SetupSetAonRtcSubSecInc                                             
00004709  NOROM_SetupSetCacheModeAccordingToCcfgSetting                             
00003e55  NOROM_SetupSetVddrLevel                                                   
000034bd  NOROM_SetupTrimDevice                                                     
00004075  NOROM_SysCtrlAdjustRechargeAfterPowerDown                                 
000014f1  NOROM_SysCtrlSetRechargeBeforePowerDown                                   
000040dd  NOROM_SysCtrl_DCDC_VoltageConditionalControl                              
00005571  NOROM_ThisLibraryIsFor_CC13x0_HwRev20AndLater_HaltIfViolated              
000056a1  NOROM_VIMSModeGet                                                         
00005681  PINCC26XX_getPinCount                                                     
00006044  PINCC26XX_hwAttrs                                                         
000052dd  PIN_close                                                                 
00001cd1  PIN_init                                                                  
000036ad  PIN_open                                                                  
0000450d  PIN_remove                                                                
00004c09  PIN_setConfig                                                             
00004c41  PIN_setOutputValue                                                        
20003940  PinTable                                                                  
0000439d  PowerCC26XX_RCOSC_clockFunc                                               
00000a8d  PowerCC26XX_auxISR                                                        
0000433d  PowerCC26XX_calibrate                                                     
00005ff0  PowerCC26XX_config                                                        
00002025  PowerCC26XX_doCalibrate                                                   
00003f39  PowerCC26XX_initiateCalibration                                           
2000362c  PowerCC26XX_module                                                        
00005499  PowerCC26XX_schedulerDisable                                              
000054b1  PowerCC26XX_schedulerRestore                                              
00002f5d  PowerCC26XX_standbyPolicy                                                 
200024f4  PowerCC26XX_swiKey                                                        
200024f0  PowerCC26XX_taskKey                                                       
000056f1  Power_getConstraintMask                                                   
000056fd  Power_getDependencyCount                                                  
000052fb  Power_getTransitionLatency                                                
000054c9  Power_idleFunc                                                            
0000293d  Power_init                                                                
00004d1d  Power_releaseConstraint                                                   
00003299  Power_releaseDependency                                                   
00004ee5  Power_setConstraint                                                       
00003355  Power_setDependency                                                       
00001729  Power_sleep                                                               
00004919  ResetISR                                                                  
UNDEFED   SHT$$INIT_ARRAY$$Base                                                     
UNDEFED   SHT$$INIT_ARRAY$$Limit                                                    
00003c69  SPItransfer                                                               
000050d9  SafeHapiVoid                                                              
0000502d  SemaphoreP_constructBinary                                                
00005619  SemaphoreP_pend                                                           
00005799  SemaphoreP_post                                                           
00005691  SwiP_Params_init                                                          
00004b55  SwiP_construct                                                            
0000579d  SwiP_disable                                                              
000057a1  SwiP_getTrigger                                                           
000057a5  SwiP_or                                                                   
1001b5dd  SwiP_restore                                                              
00000000  __ASM__                                                                   
00000087  __ISA__                                                                   
00000099  __PLAT__                                                                  
20005000  __STACK_END                                                               
00000400  __STACK_SIZE                                                              
000000c0  __TARG__                                                                  
00006278  __TI_CINIT_Base                                                           
000062d8  __TI_CINIT_Limit                                                          
00006230  __TI_Handler_Table_Base                                                   
0000623c  __TI_Handler_Table_Limit                                                  
0000374d  __TI_auto_init                                                            
00004145  __TI_decompress_lzss                                                      
000056af  __TI_decompress_none                                                      
00004613  __TI_ltoa                                                                 
ffffffff  __TI_pprof_out_hndl                                                       
0000003d  __TI_printfi                                                              
ffffffff  __TI_prof_data_size                                                       
ffffffff  __TI_prof_data_start                                                      
00006070  __TI_static_base__                                                        
0000572d  __TI_zero_init                                                            
000000e5  __TRDR__                                                                  
00003ad9  __aeabi_cdcmpeq                                                           
00003ad9  __aeabi_cdcmple                                                           
00003b5f  __aeabi_cdrcmple                                                          
00004889  __aeabi_d2iz                                                              
00001b23  __aeabi_dadd                                                              
000025b9  __aeabi_ddiv                                                              
00002c75  __aeabi_dmul                                                              
00001b19  __aeabi_dsub                                                              
000057a9  __aeabi_errno_addr                                                        
00004c79  __aeabi_f2iz                                                              
00002d75  __aeabi_fadd                                                              
000039b7  __aeabi_fdiv                                                              
00003ce9  __aeabi_fmul                                                              
00002d71  __aeabi_fsub                                                              
00004fa5  __aeabi_i2d                                                               
00004cb1  __aeabi_i2f                                                               
00001ccf  __aeabi_idiv0                                                             
00001ccf  __aeabi_ldiv0                                                             
00005511  __aeabi_lmul                                                              
00003d63  __aeabi_memclr                                                            
00003d63  __aeabi_memclr4                                                           
00003d63  __aeabi_memclr8                                                           
000037ed  __aeabi_memcpy                                                            
000037ed  __aeabi_memcpy4                                                           
000037ed  __aeabi_memcpy8                                                           
00003d65  __aeabi_memset                                                            
00003d65  __aeabi_memset4                                                           
00003d65  __aeabi_memset8                                                           
00005149  __aeabi_ui2f                                                              
00003921  __aeabi_uldivmod                                                          
ffffffff  __binit__                                                                 
ffffffff  __c_args__                                                                
0001ffa8  __ccfg                                                                    
20003518  __primary_heap_end__                                                      
20002518  __primary_heap_start__                                                    
20004c00  __stack                                                                   
20000000  __start___llvm_prf_cnts                                                   
20000000  __stop___llvm_prf_cnts                                                    
000054e1  _args_main                                                                
00004919  _c_int00                                                                  
00005e03  _ctypes_                                                                  
200039d0  _lock                                                                     
00000a8b  _nop                                                                      
00005125  _pthread_cleanupFxn                                                       
00005709  _register_lock                                                            
00005715  _register_unlock                                                          
200039d4  _unlock                                                                   
000047a5  atoi                                                                      
ffffffff  binit                                                                     
20000208  buffer                                                                    
000047f1  clearDisplay                                                              
0000521d  command                                                                   
0000483d  copy_in                                                                   
00005721  copysign                                                                  
00005721  copysignl                                                                 
0000523d  data                                                                      
00004d51  delay                                                                     
00002325  displayBuffer                                                             
00001e81  drawFont                                                                  
000021b5  drawLine                                                                  
00004ded  drawNumber                                                                
000048d1  drawString                                                                
20002510  driverlib_release_0_3_05_20_00001                                         
000043f9  frexp                                                                     
000043f9  frexpl                                                                    
20002500  i                                                                         
00003041  ldexp                                                                     
00003041  ldexpl                                                                    
000031d9  main                                                                      
20003a38  main_func_sp                                                              
000051d9  memccpy                                                                   
000037ed  memcpy                                                                    
00003d6b  memset                                                                    
00002a51  oledInit                                                                  
200035b0  pinHandleTable                                                            
2000351c  pinLowerBound                                                             
20003518  pinUpperBound                                                             
00005f04  resourceDB                                                                
00003041  scalbn                                                                    
00003041  scalbnl                                                                   
00005587  setContrast                                                               
00004a1d  sprintf                                                                   
0000559d  strchr                                                                    
000055f1  strlen                                                                    
200001a4  ti_sysbios_BIOS_Module__state__V                                          
1001bc25  ti_sysbios_BIOS_RtsGateProxy_Handle__label__S                             
1001bc25  ti_sysbios_BIOS_RtsGateProxy_Handle__label__S__mangled__                  
1001bab5  ti_sysbios_BIOS_RtsGateProxy_Object__delete__S                            
1001c175  ti_sysbios_BIOS_RtsGateProxy_Params__init__S                              
1001c175  ti_sysbios_BIOS_RtsGateProxy_Params__init__S__mangled__                   
1001c245  ti_sysbios_BIOS_RtsGateProxy_enter__E                                     
1001c249  ti_sysbios_BIOS_RtsGateProxy_leave__E                                     
1001c271  ti_sysbios_BIOS_RtsGateProxy_query__E                                     
1001c271  ti_sysbios_BIOS_RtsGateProxy_query__E__mangled__                          
00004f15  ti_sysbios_BIOS_atExitFunc__I                                             
000055b3  ti_sysbios_BIOS_exitFunc__I                                               
1001c031  ti_sysbios_BIOS_exit__E                                                   
1001bff5  ti_sysbios_BIOS_getCpuFreq__E                                             
00005739  ti_sysbios_BIOS_getThreadType__E                                          
000026ef  ti_sysbios_BIOS_linkedWithIncorrectBootLibrary__E                         
00002e6b  ti_sysbios_BIOS_nullFunc__I                                               
0000516d  ti_sysbios_BIOS_registerRTSLock__I                                        
00005191  ti_sysbios_BIOS_removeRTSLock__I                                          
0000525d  ti_sysbios_BIOS_rtsLock__I                                                
00005529  ti_sysbios_BIOS_rtsUnlock__I                                              
1001c041  ti_sysbios_BIOS_setThreadType__E                                          
00004f45  ti_sysbios_BIOS_startFunc__I                                              
1001c051  ti_sysbios_BIOS_start__E                                                  
000034bd  ti_sysbios_family_arm_cc26xx_Boot_trimDevice                              
00001406  ti_sysbios_family_arm_cc26xx_Timer_Module__id__C                          
1001bb45  ti_sysbios_family_arm_cc26xx_Timer_Module__startupDone__S                 
200001e4  ti_sysbios_family_arm_cc26xx_Timer_Module__state__V                       
1001ba6d  ti_sysbios_family_arm_cc26xx_Timer_Module_startup__E                      
20003868  ti_sysbios_family_arm_cc26xx_Timer_Object__table__V                       
0000527d  ti_sysbios_family_arm_cc26xx_Timer_dynamicStub__E                         
00006054  ti_sysbios_family_arm_cc26xx_Timer_funcHookCH1__C                         
00006058  ti_sysbios_family_arm_cc26xx_Timer_funcHookCH2__C                         
000057b1  ti_sysbios_family_arm_cc26xx_Timer_getCount64__E                          
00004f75  ti_sysbios_family_arm_cc26xx_Timer_getCurrentTick__E                      
1001c24d  ti_sysbios_family_arm_cc26xx_Timer_getExpiredTicks__E                     
000051b5  ti_sysbios_family_arm_cc26xx_Timer_getMaxTicks__E                         
1001c251  ti_sysbios_family_arm_cc26xx_Timer_getPeriod__E                           
00004db9  ti_sysbios_family_arm_cc26xx_Timer_initDevice__I                          
1001a465  ti_sysbios_family_arm_cc26xx_Timer_periodicStub__E                        
1001b765  ti_sysbios_family_arm_cc26xx_Timer_postInit__I                            
00004e21  ti_sysbios_family_arm_cc26xx_Timer_setNextTick__E                         
1001c255  ti_sysbios_family_arm_cc26xx_Timer_setPeriod__E                           
00004a5d  ti_sysbios_family_arm_cc26xx_Timer_setThreshold__I                        
00003a49  ti_sysbios_family_arm_cc26xx_Timer_start__E                               
00001384  ti_sysbios_family_arm_cc26xx_Timer_startupNeeded__C                       
1001b791  ti_sysbios_family_arm_cc26xx_Timer_startup__E                             
200001ec  ti_sysbios_family_arm_cc26xx_TimestampProvider_Module__state__V           
1001bb65  ti_sysbios_family_arm_cc26xx_TimestampProvider_Module_startup__E          
000056bd  ti_sysbios_family_arm_cc26xx_TimestampProvider_get32__E                   
1001b9cd  ti_sysbios_family_arm_cc26xx_TimestampProvider_get64__E                   
1001c12b  ti_sysbios_family_arm_cc26xx_TimestampProvider_getFreq__E                 
00001408  ti_sysbios_family_arm_cc26xx_TimestampProvider_useClockTimer__C           
00001388  ti_sysbios_family_arm_m3_Hwi_E_alreadyDefined__C                          
0000138c  ti_sysbios_family_arm_m3_Hwi_E_hwiLimitExceeded__C                        
1001aed1  ti_sysbios_family_arm_m3_Hwi_Instance_finalize__E                         
1001a3c5  ti_sysbios_family_arm_m3_Hwi_Instance_init__E                             
20003a48  ti_sysbios_family_arm_m3_Hwi_Module_State_0_excActive__A                  
20003a3c  ti_sysbios_family_arm_m3_Hwi_Module_State_0_excContext__A                 
20003a40  ti_sysbios_family_arm_m3_Hwi_Module_State_0_excStack__A                   
0000140a  ti_sysbios_family_arm_m3_Hwi_Module__id__C                                
200039d8  ti_sysbios_family_arm_m3_Hwi_Module__root__V                              
1001bb85  ti_sysbios_family_arm_m3_Hwi_Module__startupDone__S                       
20000144  ti_sysbios_family_arm_m3_Hwi_Module__state__V                             
1001b1c1  ti_sysbios_family_arm_m3_Hwi_Module_startup__E                            
00001390  ti_sysbios_family_arm_m3_Hwi_NUM_INTERRUPTS__C                            
000011d0  ti_sysbios_family_arm_m3_Hwi_Object__DESC__C                              
00001070  ti_sysbios_family_arm_m3_Hwi_Object__PARAMS__C                            
00001394  ti_sysbios_family_arm_m3_Hwi_Object__count__C                             
1001aab1  ti_sysbios_family_arm_m3_Hwi_Object__create__S                            
1001bba5  ti_sysbios_family_arm_m3_Hwi_Object__delete__S                            
1001be65  ti_sysbios_family_arm_m3_Hwi_Object__destruct__S                          
1001b7bd  ti_sysbios_family_arm_m3_Hwi_Object__get__S                               
00001398  ti_sysbios_family_arm_m3_Hwi_Object__table__C                             
200039a0  ti_sysbios_family_arm_m3_Hwi_Object__table__V                             
1001c139  ti_sysbios_family_arm_m3_Hwi_Params__init__S                              
0000139c  ti_sysbios_family_arm_m3_Hwi_ccr__C                                       
1001af29  ti_sysbios_family_arm_m3_Hwi_construct                                    
00004bcd  ti_sysbios_family_arm_m3_Hwi_construct2__E                                
1001ab15  ti_sysbios_family_arm_m3_Hwi_create                                       
1001c259  ti_sysbios_family_arm_m3_Hwi_delete                                       
1001c25d  ti_sysbios_family_arm_m3_Hwi_destruct                                     
1001c145  ti_sysbios_family_arm_m3_Hwi_disableFxn__E                                
1001b251  ti_sysbios_family_arm_m3_Hwi_disableInterrupt__E                          
1001aa49  ti_sysbios_family_arm_m3_Hwi_dispatchC__I                                 
20002408  ti_sysbios_family_arm_m3_Hwi_dispatchTable                                
1001c899  ti_sysbios_family_arm_m3_Hwi_dispatch__I                                  
1001c1f7  ti_sysbios_family_arm_m3_Hwi_doSwiRestore__I                              
1001c20f  ti_sysbios_family_arm_m3_Hwi_doTaskRestore__I                             
1001c151  ti_sysbios_family_arm_m3_Hwi_enableFxn__E                                 
1001b295  ti_sysbios_family_arm_m3_Hwi_enableInterrupt__E                           
1001c9fd  ti_sysbios_family_arm_m3_Hwi_excHandlerAsm__I                             
000013a0  ti_sysbios_family_arm_m3_Hwi_excHandlerFunc__C                            
1001bbc5  ti_sysbios_family_arm_m3_Hwi_excHandler__I                                
1001b461  ti_sysbios_family_arm_m3_Hwi_getStackInfo__E                              
1001a695  ti_sysbios_family_arm_m3_Hwi_initNVIC__E                                  
1001c9b5  ti_sysbios_family_arm_m3_Hwi_initStacks__E                                
000013a4  ti_sysbios_family_arm_m3_Hwi_nullIsrFunc__C                               
000013a8  ti_sysbios_family_arm_m3_Hwi_numSparseInterrupts__C                       
e000e000  ti_sysbios_family_arm_m3_Hwi_nvic                                         
1001ca3b  ti_sysbios_family_arm_m3_Hwi_pendSV__I                                    
1001c061  ti_sysbios_family_arm_m3_Hwi_plug__E                                      
1001a315  ti_sysbios_family_arm_m3_Hwi_postInit__I                                  
000013ac  ti_sysbios_family_arm_m3_Hwi_priGroup__C                                  
20000000  ti_sysbios_family_arm_m3_Hwi_ramVectors                                   
00000000  ti_sysbios_family_arm_m3_Hwi_resetVectors                                 
1001c215  ti_sysbios_family_arm_m3_Hwi_restoreFxn__E                                
1001ca53  ti_sysbios_family_arm_m3_Hwi_return                                       
1001be81  ti_sysbios_family_arm_m3_Hwi_setPriority__E                               
1001c1ff  ti_sysbios_family_arm_m3_Hwi_startup__E                                   
1001c009  ti_sysbios_family_arm_m3_Hwi_switchFromBootStack__E                       
1001c261  ti_sysbios_family_arm_m3_TaskSupport_Module__startupDone__S               
1001c969  ti_sysbios_family_arm_m3_TaskSupport_buildTaskStack                       
1001c15d  ti_sysbios_family_arm_m3_TaskSupport_getStackAlignment__E                 
1001ca55  ti_sysbios_family_arm_m3_TaskSupport_glue                                 
000013b0  ti_sysbios_family_arm_m3_TaskSupport_stackAlignment__C                    
1001b499  ti_sysbios_family_arm_m3_TaskSupport_start__E                             
1001ca65  ti_sysbios_family_arm_m3_TaskSupport_swap__E                              
1001ca1d  ti_sysbios_family_xxx_Hwi_switchAndRunFunc                                
1001bbe5  ti_sysbios_gates_GateHwi_Handle__label__S                                 
1001b45f  ti_sysbios_gates_GateHwi_Instance_init__E                                 
0000111c  ti_sysbios_gates_GateHwi_Module__FXNS__C                                  
0000140c  ti_sysbios_gates_GateHwi_Module__id__C                                    
200039e0  ti_sysbios_gates_GateHwi_Module__root__V                                  
000011f0  ti_sysbios_gates_GateHwi_Object__DESC__C                                  
00001330  ti_sysbios_gates_GateHwi_Object__PARAMS__C                                
1001ba91  ti_sysbios_gates_GateHwi_Object__create__S                                
1001bc05  ti_sysbios_gates_GateHwi_Object__delete__S                                
1001c169  ti_sysbios_gates_GateHwi_enter__E                                         
1001c21b  ti_sysbios_gates_GateHwi_leave__E                                         
1001c265  ti_sysbios_gates_GateHwi_query__E                                         
1001bc25  ti_sysbios_gates_GateMutex_Handle__label__S                               
000014d0  ti_sysbios_gates_GateMutex_Instance_State_sem__O                          
1001c071  ti_sysbios_gates_GateMutex_Instance_finalize__E                           
1001be9d  ti_sysbios_gates_GateMutex_Instance_init__E                               
00001140  ti_sysbios_gates_GateMutex_Module__FXNS__C                                
0000140e  ti_sysbios_gates_GateMutex_Module__id__C                                  
200039e8  ti_sysbios_gates_GateMutex_Module__root__V                                
00001210  ti_sysbios_gates_GateMutex_Object__DESC__C                                
00001348  ti_sysbios_gates_GateMutex_Object__PARAMS__C                              
1001b645  ti_sysbios_gates_GateMutex_Object__create__S                              
1001bab5  ti_sysbios_gates_GateMutex_Object__delete__S                              
1001bc45  ti_sysbios_gates_GateMutex_Object__destruct__S                            
200037c8  ti_sysbios_gates_GateMutex_Object__table__V                               
1001c175  ti_sysbios_gates_GateMutex_Params__init__S                                
1001b7e9  ti_sysbios_gates_GateMutex_construct                                      
1001b675  ti_sysbios_gates_GateMutex_create                                         
1001c269  ti_sysbios_gates_GateMutex_delete                                         
1001c26d  ti_sysbios_gates_GateMutex_destruct                                       
1001b6a5  ti_sysbios_gates_GateMutex_enter__E                                       
1001bf99  ti_sysbios_gates_GateMutex_leave__E                                       
1001c271  ti_sysbios_gates_GateMutex_query__E                                       
1001c275  ti_sysbios_hal_Hwi_HwiProxy_Module__startupDone__S                        
1001bb85  ti_sysbios_hal_Hwi_HwiProxy_Module__startupDone__S__mangled__             
1001c081  ti_sysbios_hal_Hwi_HwiProxy_Object__create__S                             
1001bba5  ti_sysbios_hal_Hwi_HwiProxy_Object__delete__S                             
1001c139  ti_sysbios_hal_Hwi_HwiProxy_Params__init__S                               
1001c139  ti_sysbios_hal_Hwi_HwiProxy_Params__init__S__mangled__                    
1001be45  ti_sysbios_hal_Hwi_HwiProxy_create                                        
1001c279  ti_sysbios_hal_Hwi_HwiProxy_delete                                        
1001c27d  ti_sysbios_hal_Hwi_HwiProxy_disableInterrupt__E                           
1001b251  ti_sysbios_hal_Hwi_HwiProxy_disableInterrupt__E__mangled__                
1001c281  ti_sysbios_hal_Hwi_HwiProxy_enableInterrupt__E                            
1001b295  ti_sysbios_hal_Hwi_HwiProxy_enableInterrupt__E__mangled__                 
1001c285  ti_sysbios_hal_Hwi_HwiProxy_getStackInfo__E                               
1001b461  ti_sysbios_hal_Hwi_HwiProxy_getStackInfo__E__mangled__                    
1001c289  ti_sysbios_hal_Hwi_HwiProxy_startup__E                                    
1001c1ff  ti_sysbios_hal_Hwi_HwiProxy_startup__E__mangled__                         
1001c28d  ti_sysbios_hal_Hwi_HwiProxy_switchFromBootStack__E                        
1001c009  ti_sysbios_hal_Hwi_HwiProxy_switchFromBootStack__E__mangled__             
1001c1ed  ti_sysbios_hal_Hwi_Instance_finalize__E                                   
1001b9f5  ti_sysbios_hal_Hwi_Instance_init__E                                       
200039f0  ti_sysbios_hal_Hwi_Module__root__V                                        
1001c01d  ti_sysbios_hal_Hwi_Module_startup__E                                      
00001230  ti_sysbios_hal_Hwi_Object__DESC__C                                        
000010a0  ti_sysbios_hal_Hwi_Object__PARAMS__C                                      
1001bc65  ti_sysbios_hal_Hwi_Object__delete__S                                      
1001ab79  ti_sysbios_hal_Hwi_create                                                 
1001c291  ti_sysbios_hal_Hwi_delete                                                 
1001c27d  ti_sysbios_hal_Hwi_disableInterrupt__E                                    
1001c27d  ti_sysbios_hal_Hwi_disableInterrupt__E                                    
1001c281  ti_sysbios_hal_Hwi_enableInterrupt__E                                     
1001c281  ti_sysbios_hal_Hwi_enableInterrupt__E                                     
1001c285  ti_sysbios_hal_Hwi_getStackInfo__E                                        
1001c285  ti_sysbios_hal_Hwi_getStackInfo__E                                        
1001b815  ti_sysbios_hal_Hwi_initStack                                              
1001c289  ti_sysbios_hal_Hwi_startup__E                                             
1001c289  ti_sysbios_hal_Hwi_startup__E                                             
1001c295  ti_sysbios_hal_Hwi_switchFromBootStack__E                                 
1001c295  ti_sysbios_hal_Hwi_switchFromBootStack__E                                 
000013b4  ti_sysbios_heaps_HeapMem_E_memory__C                                      
1001bc85  ti_sysbios_heaps_HeapMem_Handle__label__S                                 
1001b4d1  ti_sysbios_heaps_HeapMem_Instance_init__E                                 
1001bc25  ti_sysbios_heaps_HeapMem_Module_GateProxy_Handle__label__S                
1001bc25  ti_sysbios_heaps_HeapMem_Module_GateProxy_Handle__label__S__mangled__     
1001bab5  ti_sysbios_heaps_HeapMem_Module_GateProxy_Object__delete__S               
1001c175  ti_sysbios_heaps_HeapMem_Module_GateProxy_Params__init__S                 
1001c175  ti_sysbios_heaps_HeapMem_Module_GateProxy_Params__init__S__mangled__      
1001c299  ti_sysbios_heaps_HeapMem_Module_GateProxy_enter__E                        
1001c29d  ti_sysbios_heaps_HeapMem_Module_GateProxy_leave__E                        
1001c271  ti_sysbios_heaps_HeapMem_Module_GateProxy_query__E                        
1001c271  ti_sysbios_heaps_HeapMem_Module_GateProxy_query__E__mangled__             
000010cc  ti_sysbios_heaps_HeapMem_Module__FXNS__C                                  
000013b8  ti_sysbios_heaps_HeapMem_Module__gateObj__C                               
00001410  ti_sysbios_heaps_HeapMem_Module__id__C                                    
200039f8  ti_sysbios_heaps_HeapMem_Module__root__V                                  
00001250  ti_sysbios_heaps_HeapMem_Object__DESC__C                                  
00001164  ti_sysbios_heaps_HeapMem_Object__PARAMS__C                                
000013bc  ti_sysbios_heaps_HeapMem_Object__count__C                                 
1001b841  ti_sysbios_heaps_HeapMem_Object__create__S                                
1001bca5  ti_sysbios_heaps_HeapMem_Object__delete__S                                
1001b86d  ti_sysbios_heaps_HeapMem_Object__get__S                                   
000013c0  ti_sysbios_heaps_HeapMem_Object__table__C                                 
200039b8  ti_sysbios_heaps_HeapMem_Object__table__V                                 
00003ddd  ti_sysbios_heaps_HeapMem_allocUnprotected__E                              
00004565  ti_sysbios_heaps_HeapMem_alloc__E                                         
1001a791  ti_sysbios_heaps_HeapMem_free__E                                          
1001b209  ti_sysbios_heaps_HeapMem_getStats__E                                      
00004455  ti_sysbios_heaps_HeapMem_initPrimary__I                                   
1001b541  ti_sysbios_heaps_HeapMem_init__I                                          
1001c2a1  ti_sysbios_heaps_HeapMem_isBlocking__E                                    
0000605c  ti_sysbios_heaps_HeapMem_primaryHeapBaseAddr__C                           
00006060  ti_sysbios_heaps_HeapMem_primaryHeapEndAddr__C                            
000013c4  ti_sysbios_heaps_HeapMem_reqAlign__C                                      
1001c101  ti_sysbios_heaps_HeapMem_restore__E                                       
1001bfc9  ti_sysbios_knl_Clock_Instance_finalize__E                                 
1001b509  ti_sysbios_knl_Clock_Instance_init__E                                     
000014d4  ti_sysbios_knl_Clock_Module_State_clockQ__O                               
20003a00  ti_sysbios_knl_Clock_Module__root__V                                      
20000178  ti_sysbios_knl_Clock_Module__state__V                                     
1001bcc5  ti_sysbios_knl_Clock_Module_startup__E                                    
00001270  ti_sysbios_knl_Clock_Object__DESC__C                                      
00001188  ti_sysbios_knl_Clock_Object__PARAMS__C                                    
1001bad9  ti_sysbios_knl_Clock_Object__delete__S                                    
1001bce5  ti_sysbios_knl_Clock_Object__destruct__S                                  
20003960  ti_sysbios_knl_Clock_Object__table__V                                     
1001c181  ti_sysbios_knl_Clock_Params__init__S                                      
1001c2a5  ti_sysbios_knl_Clock_TimerProxy_Module__startupDone__S                    
1001bb45  ti_sysbios_knl_Clock_TimerProxy_Module__startupDone__S__mangled__         
1001c091  ti_sysbios_knl_Clock_TimerProxy_getCurrentTick__E                         
1001c2a9  ti_sysbios_knl_Clock_TimerProxy_getExpiredTicks__E                        
1001c0a1  ti_sysbios_knl_Clock_TimerProxy_getMaxTicks__E                            
1001c2ad  ti_sysbios_knl_Clock_TimerProxy_getPeriod__E                              
1001c0b1  ti_sysbios_knl_Clock_TimerProxy_setNextTick__E                            
1001b791  ti_sysbios_knl_Clock_TimerProxy_startup__E                                
1001b791  ti_sysbios_knl_Clock_TimerProxy_startup__E__mangled__                     
1001ba1d  ti_sysbios_knl_Clock_addI__E                                              
1001b575  ti_sysbios_knl_Clock_construct                                            
1001b3e9  ti_sysbios_knl_Clock_create                                               
1001c2b1  ti_sysbios_knl_Clock_delete                                               
1001c2b5  ti_sysbios_knl_Clock_destruct                                             
00005605  ti_sysbios_knl_Clock_doTick__I                                            
00005085  ti_sysbios_knl_Clock_getTicksUntilInterrupt__E                            
1001b6d5  ti_sysbios_knl_Clock_getTicks__E                                          
1001c18d  ti_sysbios_knl_Clock_getTimerHandle__E                                    
1001be63  ti_sysbios_knl_Clock_logTick__E                                           
1001c2b9  ti_sysbios_knl_Clock_removeI__E                                           
1001beb9  ti_sysbios_knl_Clock_scheduleNextTick__E                                  
000013c8  ti_sysbios_knl_Clock_serviceMargin__C                                     
1001c2bd  ti_sysbios_knl_Clock_setTimeout__E                                        
1001a715  ti_sysbios_knl_Clock_startI__E                                            
1001bfdf  ti_sysbios_knl_Clock_start__E                                             
0000529d  ti_sysbios_knl_Clock_stop__E                                              
00001414  ti_sysbios_knl_Clock_tickMode__C                                          
00006064  ti_sysbios_knl_Clock_tickPeriod__C                                        
00006068  ti_sysbios_knl_Clock_triggerClock__C                                      
000034bb  ti_sysbios_knl_Clock_triggerFunc__I                                       
1001a809  ti_sysbios_knl_Clock_walkQueueDynamic__E                                  
00003889  ti_sysbios_knl_Clock_workFuncDynamic__E                                   
1001a881  ti_sysbios_knl_Clock_workFunc__E                                          
0000604c  ti_sysbios_knl_Idle_funcList__A                                           
00001378  ti_sysbios_knl_Idle_funcList__C                                           
1001c207  ti_sysbios_knl_Idle_loop__E                                               
1001bd05  ti_sysbios_knl_Idle_run__E                                                
000014d8  ti_sysbios_knl_Mailbox_Instance_State_dataQue__O                          
000014dc  ti_sysbios_knl_Mailbox_Instance_State_dataSem__O                          
000014e0  ti_sysbios_knl_Mailbox_Instance_State_freeQue__O                          
000014e4  ti_sysbios_knl_Mailbox_Instance_State_freeSem__O                          
1001a8f9  ti_sysbios_knl_Mailbox_Instance_finalize__E                               
1001a0cd  ti_sysbios_knl_Mailbox_Instance_init__E                                   
20003a08  ti_sysbios_knl_Mailbox_Module__root__V                                    
1001b2d9  ti_sysbios_knl_Mailbox_Module_startup__E                                  
00001290  ti_sysbios_knl_Mailbox_Object__DESC__C                                    
0000103c  ti_sysbios_knl_Mailbox_Object__PARAMS__C                                  
000013cc  ti_sysbios_knl_Mailbox_Object__count__C                                   
1001bd25  ti_sysbios_knl_Mailbox_Object__delete__S                                  
1001bed5  ti_sysbios_knl_Mailbox_Object__destruct__S                                
1001b899  ti_sysbios_knl_Mailbox_Object__get__S                                     
000013d0  ti_sysbios_knl_Mailbox_Object__table__C                                   
1001c199  ti_sysbios_knl_Mailbox_Params__init__S                                    
1001af81  ti_sysbios_knl_Mailbox_construct                                          
1001abdd  ti_sysbios_knl_Mailbox_create                                             
1001c2c1  ti_sysbios_knl_Mailbox_delete                                             
1001c2c5  ti_sysbios_knl_Mailbox_destruct                                           
000013d4  ti_sysbios_knl_Mailbox_maxTypeAlign__C                                    
1001a969  ti_sysbios_knl_Mailbox_pend__E                                            
1001b8c5  ti_sysbios_knl_Mailbox_postInit__I                                        
1001a58d  ti_sysbios_knl_Mailbox_post__E                                            
1001c227  ti_sysbios_knl_Queue_Instance_init__E                                     
20003a10  ti_sysbios_knl_Queue_Module__root__V                                      
000012b0  ti_sysbios_knl_Queue_Object__DESC__C                                      
00001360  ti_sysbios_knl_Queue_Object__PARAMS__C                                    
000013d8  ti_sysbios_knl_Queue_Object__count__C                                     
1001bd45  ti_sysbios_knl_Queue_Object__delete__S                                    
1001bef1  ti_sysbios_knl_Queue_Object__destruct__S                                  
1001bd65  ti_sysbios_knl_Queue_Object__get__S                                       
000013dc  ti_sysbios_knl_Queue_Object__table__C                                     
1001b8f1  ti_sysbios_knl_Queue_construct                                            
1001b91d  ti_sysbios_knl_Queue_create                                               
1001c2c9  ti_sysbios_knl_Queue_delete                                               
1001c1a5  ti_sysbios_knl_Queue_dequeue__E                                           
1001c2cd  ti_sysbios_knl_Queue_destruct                                             
1001c22d  ti_sysbios_knl_Queue_elemClear__E                                         
1001c10f  ti_sysbios_knl_Queue_empty__E                                             
1001c1b1  ti_sysbios_knl_Queue_enqueue__E                                           
1001bf0d  ti_sysbios_knl_Queue_get__E                                               
1001c2d1  ti_sysbios_knl_Queue_head__E                                              
1001c2d5  ti_sysbios_knl_Queue_next__E                                              
1001bf29  ti_sysbios_knl_Queue_put__E                                               
1001c11d  ti_sysbios_knl_Queue_remove__E                                            
000014e8  ti_sysbios_knl_Semaphore_Instance_State_pendQ__O                          
1001c0c1  ti_sysbios_knl_Semaphore_Instance_finalize__E                             
1001bafd  ti_sysbios_knl_Semaphore_Instance_init__E                                 
20003a18  ti_sysbios_knl_Semaphore_Module__root__V                                  
000012d0  ti_sysbios_knl_Semaphore_Object__DESC__C                                  
000011ac  ti_sysbios_knl_Semaphore_Object__PARAMS__C                                
1001bb21  ti_sysbios_knl_Semaphore_Object__delete__S                                
1001bd85  ti_sysbios_knl_Semaphore_Object__destruct__S                              
1001c1bd  ti_sysbios_knl_Semaphore_Params__init__S                                  
1001b705  ti_sysbios_knl_Semaphore_construct                                        
1001b5a9  ti_sysbios_knl_Semaphore_create                                           
1001c2d9  ti_sysbios_knl_Semaphore_delete                                           
1001c2dd  ti_sysbios_knl_Semaphore_destruct                                         
1001b949  ti_sysbios_knl_Semaphore_pendTimeout__I                                   
1001a001  ti_sysbios_knl_Semaphore_pend__E                                          
1001ac41  ti_sysbios_knl_Semaphore_post__E                                          
1001bf97  ti_sysbios_knl_Swi_Instance_finalize__E                                   
1001aca5  ti_sysbios_knl_Swi_Instance_init__E                                       
200038b0  ti_sysbios_knl_Swi_Module_State_0_readyQ__A                               
20003a20  ti_sysbios_knl_Swi_Module__root__V                                        
200001c8  ti_sysbios_knl_Swi_Module__state__V                                       
1001c233  ti_sysbios_knl_Swi_Module_startup__E                                      
000012f0  ti_sysbios_knl_Swi_Object__DESC__C                                        
000010f4  ti_sysbios_knl_Swi_Object__PARAMS__C                                      
000013e0  ti_sysbios_knl_Swi_Object__count__C                                       
1001bda5  ti_sysbios_knl_Swi_Object__delete__S                                      
1001bf45  ti_sysbios_knl_Swi_Object__destruct__S                                    
1001b975  ti_sysbios_knl_Swi_Object__get__S                                         
000013e4  ti_sysbios_knl_Swi_Object__table__C                                       
200038e0  ti_sysbios_knl_Swi_Object__table__V                                       
1001c1c9  ti_sysbios_knl_Swi_Params__init__S                                        
1001b085  ti_sysbios_knl_Swi_construct                                              
000053a5  ti_sysbios_knl_Swi_construct2__E                                          
1001ad05  ti_sysbios_knl_Swi_create                                                 
1001c2e1  ti_sysbios_knl_Swi_delete                                                 
1001c2e5  ti_sysbios_knl_Swi_destruct                                               
1001c0d1  ti_sysbios_knl_Swi_disable__E                                             
1001c0e1  ti_sysbios_knl_Swi_enabled__E                                             
00005745  ti_sysbios_knl_Swi_getTrigger__E                                          
000013e8  ti_sysbios_knl_Swi_numPriorities__C                                       
00005541  ti_sysbios_knl_Swi_or__E                                                  
1001c2e9  ti_sysbios_knl_Swi_postInit__I                                            
1001b31d  ti_sysbios_knl_Swi_post__E                                                
1001ad61  ti_sysbios_knl_Swi_restoreHwi__E                                          
1001b5dd  ti_sysbios_knl_Swi_restore__E                                             
1001b0d5  ti_sysbios_knl_Swi_runLoop__I                                             
1001afd9  ti_sysbios_knl_Swi_run__I                                                 
1001b031  ti_sysbios_knl_Swi_schedule__I                                            
1001c239  ti_sysbios_knl_Swi_startup__E                                             
20002208  ti_sysbios_knl_Task_Instance_State_0_stack__A                             
1001a4f9  ti_sysbios_knl_Task_Instance_finalize__E                                  
1001a259  ti_sysbios_knl_Task_Instance_init__E                                      
20003a44  ti_sysbios_knl_Task_Module_State_0_idleTask__A                            
20003910  ti_sysbios_knl_Task_Module_State_0_readyQ__A                              
000014ec  ti_sysbios_knl_Task_Module_State_inactiveQ__O                             
20003a28  ti_sysbios_knl_Task_Module__root__V                                       
20000100  ti_sysbios_knl_Task_Module__state__V                                      
1001adbd  ti_sysbios_knl_Task_Module_startup__E                                     
00001310  ti_sysbios_knl_Task_Object__DESC__C                                       
00001000  ti_sysbios_knl_Task_Object__PARAMS__C                                     
000013ec  ti_sysbios_knl_Task_Object__count__C                                      
1001bdc5  ti_sysbios_knl_Task_Object__delete__S                                     
1001bf61  ti_sysbios_knl_Task_Object__destruct__S                                   
1001bde5  ti_sysbios_knl_Task_Object__get__S                                        
0000606c  ti_sysbios_knl_Task_Object__heap__C                                       
000013f0  ti_sysbios_knl_Task_Object__table__C                                      
2000381c  ti_sysbios_knl_Task_Object__table__V                                      
1001c1d5  ti_sysbios_knl_Task_Params__init__S                                       
1001c2ed  ti_sysbios_knl_Task_SupportProxy_Module__startupDone__S                   
1001c261  ti_sysbios_knl_Task_SupportProxy_Module__startupDone__S__mangled__        
1001c2f1  ti_sysbios_knl_Task_SupportProxy_getStackAlignment__E                     
1001c15d  ti_sysbios_knl_Task_SupportProxy_getStackAlignment__E__mangled__          
1001c2f5  ti_sysbios_knl_Task_SupportProxy_start__E                                 
1001b499  ti_sysbios_knl_Task_SupportProxy_start__E__mangled__                      
1001c2f9  ti_sysbios_knl_Task_SupportProxy_swap__E                                  
1001ca65  ti_sysbios_knl_Task_SupportProxy_swap__E__mangled__                       
000013f4  ti_sysbios_knl_Task_allBlockedFunc__C                                     
1001b361  ti_sysbios_knl_Task_allBlockedFunction__I                                 
1001b611  ti_sysbios_knl_Task_blockI__E                                             
1001b125  ti_sysbios_knl_Task_construct                                             
1001ae19  ti_sysbios_knl_Task_create                                                
000013f8  ti_sysbios_knl_Task_defaultStackHeap__C                                   
000013fc  ti_sysbios_knl_Task_defaultStackSize__C                                   
1001c2fd  ti_sysbios_knl_Task_delete                                                
1001c301  ti_sysbios_knl_Task_destruct                                              
1001c0f1  ti_sysbios_knl_Task_disable__E                                            
1001c23f  ti_sysbios_knl_Task_enable__E                                             
1001be05  ti_sysbios_knl_Task_enter__I                                              
1001b425  ti_sysbios_knl_Task_exit__E                                               
00001412  ti_sysbios_knl_Task_initStackFlag__C                                      
00001400  ti_sysbios_knl_Task_numConstructedTasks__C                                
1001a611  ti_sysbios_knl_Task_postInit__I                                           
1001b735  ti_sysbios_knl_Task_processVitalTaskFlag__I                               
1001be25  ti_sysbios_knl_Task_restoreHwi__E                                         
1001ba45  ti_sysbios_knl_Task_restore__E                                            
1001b175  ti_sysbios_knl_Task_schedule__I                                           
1001c1e1  ti_sysbios_knl_Task_self__E                                               
1001bf7d  ti_sysbios_knl_Task_sleepTimeout__I                                       
1001a9d9  ti_sysbios_knl_Task_sleep__E                                              
1001ae75  ti_sysbios_knl_Task_startCore__E                                          
1001c305  ti_sysbios_knl_Task_startup__E                                            
1001ca6d  ti_sysbios_knl_Task_swapReturn                                            
1001b9a1  ti_sysbios_knl_Task_unblockI__E                                           
1001bfb1  ti_sysbios_knl_Task_unblock__E                                            
1001b3a5  ti_sysbios_knl_Task_yield__E                                              
00001494  ti_sysbios_rom_ROM_AONRTCChannelEnable                                    
00001498  ti_sysbios_rom_ROM_AONRTCCompareValueSet                                  
0000149c  ti_sysbios_rom_ROM_AONRTCCurrentCompareValueGet                           
000014a0  ti_sysbios_rom_ROM_AONRTCEventClear                                       
000014a4  ti_sysbios_rom_ROM_ti_sysbios_family_arm_cc26xx_Timer_getCount64__E       
000014a8  ti_sysbios_rom_ROM_ti_sysbios_family_arm_cc26xx_Timer_getCurrentTick__E   
000014ac  ti_sysbios_rom_ROM_ti_sysbios_family_arm_cc26xx_Timer_getMaxTicks__E      
000014b0  ti_sysbios_rom_ROM_ti_sysbios_family_arm_cc26xx_Timer_initDevice__I       
000014b4  ti_sysbios_rom_ROM_ti_sysbios_family_arm_cc26xx_Timer_setNextTick__E      
000014b8  ti_sysbios_rom_ROM_ti_sysbios_family_arm_cc26xx_Timer_setThreshold__I     
000014bc  ti_sysbios_rom_ROM_ti_sysbios_family_arm_cc26xx_Timer_start__E            
000014c0  ti_sysbios_rom_ROM_ti_sysbios_family_arm_cc26xx_TimestampProvider_get32__E
000014c4  ti_sysbios_rom_ROM_xdc_runtime_Startup_getState__I                        
000014c8  ti_sysbios_rom_ROM_xdc_runtime_System_SupportProxy_abort__E               
000014cc  ti_sysbios_rom_ROM_xdc_runtime_System_SupportProxy_exit__E                
1001ca97  ti_sysbios_rom_cortexm_cc13xx_CC13xx_getRevision__E                       
00005559  ti_sysbios_rts_ti_ReentSupport_getReent__E                                
00005559  ti_sysbios_rts_ti_ReentSupport_getReent__F                                
00005771  ti_sysbios_rts_ti_ReentSupport_getTlsAddr__I                              
0000562b  wcslen                                                                    
00000001  xdc_rov_runtime_Mon__checksum                                             
00000001  xdc_rov_runtime_Mon__write                                                
00001428  xdc_runtime_Assert_E_assertFailed__C                                      
1001c5a5  xdc_runtime_Assert_raise__I                                               
1001c6e9  xdc_runtime_Core_assignLabel__I                                           
1001c5ed  xdc_runtime_Core_assignParams__I                                          
1001c635  xdc_runtime_Core_constructObject__I                                       
1001c401  xdc_runtime_Core_createObject__I                                          
1001c4f5  xdc_runtime_Core_deleteObject__I                                          
1001c79d  xdc_runtime_Core_destructObject__I                                        
0000142c  xdc_runtime_Error_E_memory__C                                             
20003980  xdc_runtime_Error_IgnoreBlock                                             
1001c7b5  xdc_runtime_Error_check__E                                                
00001430  xdc_runtime_Error_policyFxn__C                                            
000052bd  xdc_runtime_Error_policyMin__E                                            
1001c483  xdc_runtime_Error_policySpin__E                                           
00001490  xdc_runtime_Error_policy__C                                               
1001c765  xdc_runtime_Error_raiseX__E                                               
1001c881  xdc_runtime_Gate_enterSystem__E                                           
1001c875  xdc_runtime_Gate_leaveSystem__E                                           
00001434  xdc_runtime_IGateProvider_Interface__BASE__C                              
00001438  xdc_runtime_IHeap_Interface__BASE__C                                      
0000143c  xdc_runtime_IModule_Interface__BASE__C                                    
1001bbe5  xdc_runtime_Main_Module_GateProxy_Handle__label__S                        
1001c265  xdc_runtime_Main_Module_GateProxy_query__E                                
00001440  xdc_runtime_Main_Module__diagsEnabled__C                                  
00001444  xdc_runtime_Main_Module__diagsIncluded__C                                 
00001448  xdc_runtime_Main_Module__diagsMask__C                                     
00001488  xdc_runtime_Main_Module__id__C                                            
1001bc85  xdc_runtime_Memory_HeapProxy_Handle__label__S                             
1001bc85  xdc_runtime_Memory_HeapProxy_Handle__label__S__mangled__                  
1001bca5  xdc_runtime_Memory_HeapProxy_Object__delete__S                            
1001c885  xdc_runtime_Memory_HeapProxy_alloc__E                                     
1001c889  xdc_runtime_Memory_HeapProxy_free__E                                      
0000148a  xdc_runtime_Memory_Module__id__C                                          
20000200  xdc_runtime_Memory_Module__state__V                                       
1001c485  xdc_runtime_Memory_alloc__E                                               
1001c849  xdc_runtime_Memory_calloc__E                                              
0000144c  xdc_runtime_Memory_defaultHeapInstance__C                                 
1001c7fd  xdc_runtime_Memory_free__E                                                
1001c855  xdc_runtime_Memory_getMaxDefaultTypeAlign__E                              
1001c781  xdc_runtime_Memory_valloc__E                                              
200001f0  xdc_runtime_Startup_Module__state__V                                      
00000001  xdc_runtime_Startup__EXECFXN__C                                           
00000001  xdc_runtime_Startup__RESETFXN__C                                          
00001450  xdc_runtime_Startup_execImpl__C                                           
1001c555  xdc_runtime_Startup_exec__E                                               
0000563d  xdc_runtime_Startup_exec__I                                               
00006030  xdc_runtime_Startup_firstFxns__A                                          
00001418  xdc_runtime_Startup_firstFxns__C                                          
000044b1  xdc_runtime_Startup_getState__I                                           
00001420  xdc_runtime_Startup_lastFxns__C                                           
00001454  xdc_runtime_Startup_maxPasses__C                                          
000057b5  xdc_runtime_Startup_reset__I                                              
00005751  xdc_runtime_Startup_rtsDone__E                                            
0000601c  xdc_runtime_Startup_sfxnRts__A                                            
00001458  xdc_runtime_Startup_sfxnRts__C                                            
00005fcc  xdc_runtime_Startup_sfxnTab__A                                            
0000145c  xdc_runtime_Startup_sfxnTab__C                                            
00001460  xdc_runtime_Startup_startModsFxn__C                                       
1001c309  xdc_runtime_Startup_startMods__I                                          
00001464  xdc_runtime_SysCallback_abortFxn__C                                       
1001c80d  xdc_runtime_SysCallback_abort__E                                          
00003e53  xdc_runtime_SysCallback_defaultAbort                                      
00003f37  xdc_runtime_SysCallback_defaultExit                                       
00001468  xdc_runtime_SysCallback_exitFxn__C                                        
1001c81d  xdc_runtime_SysCallback_exit__E                                           
1001bbe5  xdc_runtime_System_Module_GateProxy_Handle__label__S                      
1001bbe5  xdc_runtime_System_Module_GateProxy_Handle__label__S__mangled__           
1001bc05  xdc_runtime_System_Module_GateProxy_Object__delete__S                     
1001c88d  xdc_runtime_System_Module_GateProxy_enter__E                              
1001c891  xdc_runtime_System_Module_GateProxy_leave__E                              
1001c265  xdc_runtime_System_Module_GateProxy_query__E                              
1001c265  xdc_runtime_System_Module_GateProxy_query__E__mangled__                   
20003a30  xdc_runtime_System_Module_State_0_atexitHandlers__A                       
200001f8  xdc_runtime_System_Module__state__V                                       
1001c87b  xdc_runtime_System_Module_startup__E                                      
1001c80d  xdc_runtime_System_SupportProxy_abort__E                                  
1001c81d  xdc_runtime_System_SupportProxy_exit__E                                   
0000146c  xdc_runtime_System_abortFxn__C                                            
1001c895  xdc_runtime_System_abortSpin__E                                           
1001c745  xdc_runtime_System_abort__E                                               
1001c67d  xdc_runtime_System_atexit__E                                              
00001470  xdc_runtime_System_exitFxn__C                                             
1001c897  xdc_runtime_System_exitSpin__E                                            
1001c7cd  xdc_runtime_System_exit__E                                                
00001474  xdc_runtime_System_maxAtexitHandlers__C                                   
1001c6b5  xdc_runtime_System_processAtExit__E                                       
0000148c  xdc_runtime_Text_charCnt__C                                               
0000602e  xdc_runtime_Text_charTab__A                                               
00001478  xdc_runtime_Text_charTab__C                                               
1001c719  xdc_runtime_Text_cordText__E                                              
0000148e  xdc_runtime_Text_isLoaded__C                                              
0000147c  xdc_runtime_Text_nameEmpty__C                                             
00001480  xdc_runtime_Text_nameStatic__C                                            
00001484  xdc_runtime_Text_nameUnknown__C                                           
1001c7e5  xdc_runtime_Text_ropeText__E                                              
1001c82d  xdc_runtime_Timestamp_SupportProxy_get32__E                               
000056bd  xdc_runtime_Timestamp_SupportProxy_get32__E__mangled__                    
1001b9cd  xdc_runtime_Timestamp_SupportProxy_get64__E                               
1001b9cd  xdc_runtime_Timestamp_SupportProxy_get64__E__mangled__                    
1001c12b  xdc_runtime_Timestamp_SupportProxy_getFreq__E                             
1001c12b  xdc_runtime_Timestamp_SupportProxy_getFreq__E__mangled__                  
1001c82d  xdc_runtime_Timestamp_get32__E                                            
1001c82d  xdc_runtime_Timestamp_get32__E                                            
1001b9cd  xdc_runtime_Timestamp_get64__E                                            
1001b9cd  xdc_runtime_Timestamp_get64__E                                            
1001c12b  xdc_runtime_Timestamp_getFreq__E                                          
1001c12b  xdc_runtime_Timestamp_getFreq__E                                          


GLOBAL SYMBOLS: SORTED BY Symbol Address 

address   name                                                                      
-------   ----                                                                      
00000000  __ASM__                                                                   
00000000  ti_sysbios_family_arm_m3_Hwi_resetVectors                                 
00000001  xdc_rov_runtime_Mon__checksum                                             
00000001  xdc_rov_runtime_Mon__write                                                
00000001  xdc_runtime_Startup__EXECFXN__C                                           
00000001  xdc_runtime_Startup__RESETFXN__C                                          
0000003d  __TI_printfi                                                              
00000087  __ISA__                                                                   
00000099  __PLAT__                                                                  
000000c0  __TARG__                                                                  
000000e5  __TRDR__                                                                  
00000400  __STACK_SIZE                                                              
00000a8b  _nop                                                                      
00000a8d  PowerCC26XX_auxISR                                                        
00000ff9  Board_init                                                                
00001000  HEAPSIZE                                                                  
00001000  ti_sysbios_knl_Task_Object__PARAMS__C                                     
0000103c  ti_sysbios_knl_Mailbox_Object__PARAMS__C                                  
00001070  ti_sysbios_family_arm_m3_Hwi_Object__PARAMS__C                            
000010a0  ti_sysbios_hal_Hwi_Object__PARAMS__C                                      
000010cc  ti_sysbios_heaps_HeapMem_Module__FXNS__C                                  
000010f4  ti_sysbios_knl_Swi_Object__PARAMS__C                                      
0000111c  ti_sysbios_gates_GateHwi_Module__FXNS__C                                  
00001140  ti_sysbios_gates_GateMutex_Module__FXNS__C                                
00001164  ti_sysbios_heaps_HeapMem_Object__PARAMS__C                                
00001188  ti_sysbios_knl_Clock_Object__PARAMS__C                                    
000011ac  ti_sysbios_knl_Semaphore_Object__PARAMS__C                                
000011d0  ti_sysbios_family_arm_m3_Hwi_Object__DESC__C                              
000011f0  ti_sysbios_gates_GateHwi_Object__DESC__C                                  
00001210  ti_sysbios_gates_GateMutex_Object__DESC__C                                
00001230  ti_sysbios_hal_Hwi_Object__DESC__C                                        
00001250  ti_sysbios_heaps_HeapMem_Object__DESC__C                                  
00001270  ti_sysbios_knl_Clock_Object__DESC__C                                      
00001290  ti_sysbios_knl_Mailbox_Object__DESC__C                                    
000012b0  ti_sysbios_knl_Queue_Object__DESC__C                                      
000012d0  ti_sysbios_knl_Semaphore_Object__DESC__C                                  
000012f0  ti_sysbios_knl_Swi_Object__DESC__C                                        
00001310  ti_sysbios_knl_Task_Object__DESC__C                                       
00001330  ti_sysbios_gates_GateHwi_Object__PARAMS__C                                
00001348  ti_sysbios_gates_GateMutex_Object__PARAMS__C                              
00001360  ti_sysbios_knl_Queue_Object__PARAMS__C                                    
00001378  ti_sysbios_knl_Idle_funcList__C                                           
00001384  ti_sysbios_family_arm_cc26xx_Timer_startupNeeded__C                       
00001388  ti_sysbios_family_arm_m3_Hwi_E_alreadyDefined__C                          
0000138c  ti_sysbios_family_arm_m3_Hwi_E_hwiLimitExceeded__C                        
00001390  ti_sysbios_family_arm_m3_Hwi_NUM_INTERRUPTS__C                            
00001394  ti_sysbios_family_arm_m3_Hwi_Object__count__C                             
00001398  ti_sysbios_family_arm_m3_Hwi_Object__table__C                             
0000139c  ti_sysbios_family_arm_m3_Hwi_ccr__C                                       
000013a0  ti_sysbios_family_arm_m3_Hwi_excHandlerFunc__C                            
000013a4  ti_sysbios_family_arm_m3_Hwi_nullIsrFunc__C                               
000013a8  ti_sysbios_family_arm_m3_Hwi_numSparseInterrupts__C                       
000013ac  ti_sysbios_family_arm_m3_Hwi_priGroup__C                                  
000013b0  ti_sysbios_family_arm_m3_TaskSupport_stackAlignment__C                    
000013b4  ti_sysbios_heaps_HeapMem_E_memory__C                                      
000013b8  ti_sysbios_heaps_HeapMem_Module__gateObj__C                               
000013bc  ti_sysbios_heaps_HeapMem_Object__count__C                                 
000013c0  ti_sysbios_heaps_HeapMem_Object__table__C                                 
000013c4  ti_sysbios_heaps_HeapMem_reqAlign__C                                      
000013c8  ti_sysbios_knl_Clock_serviceMargin__C                                     
000013cc  ti_sysbios_knl_Mailbox_Object__count__C                                   
000013d0  ti_sysbios_knl_Mailbox_Object__table__C                                   
000013d4  ti_sysbios_knl_Mailbox_maxTypeAlign__C                                    
000013d8  ti_sysbios_knl_Queue_Object__count__C                                     
000013dc  ti_sysbios_knl_Queue_Object__table__C                                     
000013e0  ti_sysbios_knl_Swi_Object__count__C                                       
000013e4  ti_sysbios_knl_Swi_Object__table__C                                       
000013e8  ti_sysbios_knl_Swi_numPriorities__C                                       
000013ec  ti_sysbios_knl_Task_Object__count__C                                      
000013f0  ti_sysbios_knl_Task_Object__table__C                                      
000013f4  ti_sysbios_knl_Task_allBlockedFunc__C                                     
000013f8  ti_sysbios_knl_Task_defaultStackHeap__C                                   
000013fc  ti_sysbios_knl_Task_defaultStackSize__C                                   
00001400  ti_sysbios_knl_Task_numConstructedTasks__C                                
00001406  ti_sysbios_family_arm_cc26xx_Timer_Module__id__C                          
00001408  ti_sysbios_family_arm_cc26xx_TimestampProvider_useClockTimer__C           
0000140a  ti_sysbios_family_arm_m3_Hwi_Module__id__C                                
0000140c  ti_sysbios_gates_GateHwi_Module__id__C                                    
0000140e  ti_sysbios_gates_GateMutex_Module__id__C                                  
00001410  ti_sysbios_heaps_HeapMem_Module__id__C                                    
00001412  ti_sysbios_knl_Task_initStackFlag__C                                      
00001414  ti_sysbios_knl_Clock_tickMode__C                                          
00001418  xdc_runtime_Startup_firstFxns__C                                          
00001420  xdc_runtime_Startup_lastFxns__C                                           
00001428  xdc_runtime_Assert_E_assertFailed__C                                      
0000142c  xdc_runtime_Error_E_memory__C                                             
00001430  xdc_runtime_Error_policyFxn__C                                            
00001434  xdc_runtime_IGateProvider_Interface__BASE__C                              
00001438  xdc_runtime_IHeap_Interface__BASE__C                                      
0000143c  xdc_runtime_IModule_Interface__BASE__C                                    
00001440  xdc_runtime_Main_Module__diagsEnabled__C                                  
00001444  xdc_runtime_Main_Module__diagsIncluded__C                                 
00001448  xdc_runtime_Main_Module__diagsMask__C                                     
0000144c  xdc_runtime_Memory_defaultHeapInstance__C                                 
00001450  xdc_runtime_Startup_execImpl__C                                           
00001454  xdc_runtime_Startup_maxPasses__C                                          
00001458  xdc_runtime_Startup_sfxnRts__C                                            
0000145c  xdc_runtime_Startup_sfxnTab__C                                            
00001460  xdc_runtime_Startup_startModsFxn__C                                       
00001464  xdc_runtime_SysCallback_abortFxn__C                                       
00001468  xdc_runtime_SysCallback_exitFxn__C                                        
0000146c  xdc_runtime_System_abortFxn__C                                            
00001470  xdc_runtime_System_exitFxn__C                                             
00001474  xdc_runtime_System_maxAtexitHandlers__C                                   
00001478  xdc_runtime_Text_charTab__C                                               
0000147c  xdc_runtime_Text_nameEmpty__C                                             
00001480  xdc_runtime_Text_nameStatic__C                                            
00001484  xdc_runtime_Text_nameUnknown__C                                           
00001488  xdc_runtime_Main_Module__id__C                                            
0000148a  xdc_runtime_Memory_Module__id__C                                          
0000148c  xdc_runtime_Text_charCnt__C                                               
0000148e  xdc_runtime_Text_isLoaded__C                                              
00001490  xdc_runtime_Error_policy__C                                               
00001494  ti_sysbios_rom_ROM_AONRTCChannelEnable                                    
00001498  ti_sysbios_rom_ROM_AONRTCCompareValueSet                                  
0000149c  ti_sysbios_rom_ROM_AONRTCCurrentCompareValueGet                           
000014a0  ti_sysbios_rom_ROM_AONRTCEventClear                                       
000014a4  ti_sysbios_rom_ROM_ti_sysbios_family_arm_cc26xx_Timer_getCount64__E       
000014a8  ti_sysbios_rom_ROM_ti_sysbios_family_arm_cc26xx_Timer_getCurrentTick__E   
000014ac  ti_sysbios_rom_ROM_ti_sysbios_family_arm_cc26xx_Timer_getMaxTicks__E      
000014b0  ti_sysbios_rom_ROM_ti_sysbios_family_arm_cc26xx_Timer_initDevice__I       
000014b4  ti_sysbios_rom_ROM_ti_sysbios_family_arm_cc26xx_Timer_setNextTick__E      
000014b8  ti_sysbios_rom_ROM_ti_sysbios_family_arm_cc26xx_Timer_setThreshold__I     
000014bc  ti_sysbios_rom_ROM_ti_sysbios_family_arm_cc26xx_Timer_start__E            
000014c0  ti_sysbios_rom_ROM_ti_sysbios_family_arm_cc26xx_TimestampProvider_get32__E
000014c4  ti_sysbios_rom_ROM_xdc_runtime_Startup_getState__I                        
000014c8  ti_sysbios_rom_ROM_xdc_runtime_System_SupportProxy_abort__E               
000014cc  ti_sysbios_rom_ROM_xdc_runtime_System_SupportProxy_exit__E                
000014d0  ti_sysbios_gates_GateMutex_Instance_State_sem__O                          
000014d4  ti_sysbios_knl_Clock_Module_State_clockQ__O                               
000014d8  ti_sysbios_knl_Mailbox_Instance_State_dataQue__O                          
000014dc  ti_sysbios_knl_Mailbox_Instance_State_dataSem__O                          
000014e0  ti_sysbios_knl_Mailbox_Instance_State_freeQue__O                          
000014e4  ti_sysbios_knl_Mailbox_Instance_State_freeSem__O                          
000014e8  ti_sysbios_knl_Semaphore_Instance_State_pendQ__O                          
000014ec  ti_sysbios_knl_Task_Module_State_inactiveQ__O                             
000014f1  NOROM_SysCtrlSetRechargeBeforePowerDown                                   
00001729  Power_sleep                                                               
00001b19  __aeabi_dsub                                                              
00001b23  __aeabi_dadd                                                              
00001ccf  __aeabi_idiv0                                                             
00001ccf  __aeabi_ldiv0                                                             
00001cd1  PIN_init                                                                  
00001e81  drawFont                                                                  
00002025  PowerCC26XX_doCalibrate                                                   
000021b5  drawLine                                                                  
00002325  displayBuffer                                                             
000025b9  __aeabi_ddiv                                                              
000026ef  ti_sysbios_BIOS_linkedWithIncorrectBootLibrary__E                         
000026f1  NOROM_SetupAfterColdResetWakeupFromShutDownCfg3                           
0000293d  Power_init                                                                
00002a51  oledInit                                                                  
00002c75  __aeabi_dmul                                                              
00002d71  __aeabi_fsub                                                              
00002d75  __aeabi_fadd                                                              
00002e6b  ti_sysbios_BIOS_nullFunc__I                                               
00002e6d  NOROM_SetupAfterColdResetWakeupFromShutDownCfg2                           
00002f5d  PowerCC26XX_standbyPolicy                                                 
00003041  ldexp                                                                     
00003041  ldexpl                                                                    
00003041  scalbn                                                                    
00003041  scalbnl                                                                   
000031d9  main                                                                      
00003299  Power_releaseDependency                                                   
00003355  Power_setDependency                                                       
000034bb  ti_sysbios_knl_Clock_triggerFunc__I                                       
000034bd  NOROM_SetupTrimDevice                                                     
000034bd  ti_sysbios_family_arm_cc26xx_Boot_trimDevice                              
00003565  NOROM_SetupAfterColdResetWakeupFromShutDownCfg1                           
000036ad  PIN_open                                                                  
0000374d  __TI_auto_init                                                            
000037ed  __aeabi_memcpy                                                            
000037ed  __aeabi_memcpy4                                                           
000037ed  __aeabi_memcpy8                                                           
000037ed  memcpy                                                                    
00003889  ti_sysbios_knl_Clock_workFuncDynamic__E                                   
00003921  __aeabi_uldivmod                                                          
000039b7  __aeabi_fdiv                                                              
00003a49  ti_sysbios_family_arm_cc26xx_Timer_start__E                               
00003ad9  __aeabi_cdcmpeq                                                           
00003ad9  __aeabi_cdcmple                                                           
00003b5f  __aeabi_cdrcmple                                                          
00003be5  CC1350_LAUNCHXL_sendExtFlashByte                                          
00003c69  SPItransfer                                                               
00003ce9  __aeabi_fmul                                                              
00003d63  __aeabi_memclr                                                            
00003d63  __aeabi_memclr4                                                           
00003d63  __aeabi_memclr8                                                           
00003d65  __aeabi_memset                                                            
00003d65  __aeabi_memset4                                                           
00003d65  __aeabi_memset8                                                           
00003d6b  memset                                                                    
00003ddd  ti_sysbios_heaps_HeapMem_allocUnprotected__E                              
00003e53  xdc_runtime_SysCallback_defaultAbort                                      
00003e55  NOROM_SetupSetVddrLevel                                                   
00003f37  xdc_runtime_SysCallback_defaultExit                                       
00003f39  PowerCC26XX_initiateCalibration                                           
00003fa5  NOROM_SetupGetTrimForAmpcompCtrl                                          
0000400d  NOROM_SetupGetTrimForAnabypassValue1                                      
00004075  NOROM_SysCtrlAdjustRechargeAfterPowerDown                                 
000040dd  NOROM_SysCtrl_DCDC_VoltageConditionalControl                              
00004145  __TI_decompress_lzss                                                      
00004215  NOROM_OSCHF_AttemptToSwitchToXosc                                         
000042dd  NOROM_OSCClockSourceSet                                                   
0000433d  PowerCC26XX_calibrate                                                     
0000439d  PowerCC26XX_RCOSC_clockFunc                                               
000043f9  frexp                                                                     
000043f9  frexpl                                                                    
00004455  ti_sysbios_heaps_HeapMem_initPrimary__I                                   
000044b1  xdc_runtime_Startup_getState__I                                           
0000450d  PIN_remove                                                                
00004565  ti_sysbios_heaps_HeapMem_alloc__E                                         
00004613  __TI_ltoa                                                                 
000046b9  ClockP_construct                                                          
00004709  NOROM_SetupSetCacheModeAccordingToCcfgSetting                             
00004759  CC1350_LAUNCHXL_wakeUpExtFlash                                            
000047a5  atoi                                                                      
000047f1  clearDisplay                                                              
0000483d  copy_in                                                                   
00004889  __aeabi_d2iz                                                              
000048d1  drawString                                                                
00004919  ResetISR                                                                  
00004919  _c_int00                                                                  
0000495d  CC1350_LAUNCHXL_shutDownExtFlash                                          
0000499d  NOROM_ChipInfo_GetHwRevision                                              
00004a1d  sprintf                                                                   
00004a5d  ti_sysbios_family_arm_cc26xx_Timer_setThreshold__I                        
00004a9d  HwiP_construct                                                            
00004b19  NOROM_OSC_HPOSCRelativeFrequencyOffsetGet                                 
00004b55  SwiP_construct                                                            
00004bcd  ti_sysbios_family_arm_m3_Hwi_construct2__E                                
00004c09  PIN_setConfig                                                             
00004c41  PIN_setOutputValue                                                        
00004c79  __aeabi_f2iz                                                              
00004cb1  __aeabi_i2f                                                               
00004ce9  NOROM_OSCHF_SwitchToRcOscTurnOffXosc                                      
00004d1d  Power_releaseConstraint                                                   
00004d51  delay                                                                     
00004db9  ti_sysbios_family_arm_cc26xx_Timer_initDevice__I                          
00004ded  drawNumber                                                                
00004e21  ti_sysbios_family_arm_cc26xx_Timer_setNextTick__E                         
00004e55  NOROM_ChipInfo_GetChipType                                                
00004e85  NOROM_SetupGetTrimForRadcExtCfg                                           
00004eb5  NOROM_SetupSetAonRtcSubSecInc                                             
00004ee5  Power_setConstraint                                                       
00004f15  ti_sysbios_BIOS_atExitFunc__I                                             
00004f45  ti_sysbios_BIOS_startFunc__I                                              
00004f75  ti_sysbios_family_arm_cc26xx_Timer_getCurrentTick__E                      
00004fa5  __aeabi_i2d                                                               
00004fd5  NOROM_DDI32RegWrite                                                       
00005001  NOROM_OSCClockSourceGet                                                   
0000502d  SemaphoreP_constructBinary                                                
00005085  ti_sysbios_knl_Clock_getTicksUntilInterrupt__E                            
000050b1  NOROM_AONBatMonTemperatureGetDegC                                         
000050d9  SafeHapiVoid                                                              
00005125  _pthread_cleanupFxn                                                       
00005149  __aeabi_ui2f                                                              
0000516d  ti_sysbios_BIOS_registerRTSLock__I                                        
00005191  ti_sysbios_BIOS_removeRTSLock__I                                          
000051b5  ti_sysbios_family_arm_cc26xx_Timer_getMaxTicks__E                         
000051d9  memccpy                                                                   
000051fd  NOROM_SetupGetTrimForXoscHfCtl                                            
0000521d  command                                                                   
0000523d  data                                                                      
0000525d  ti_sysbios_BIOS_rtsLock__I                                                
0000527d  ti_sysbios_family_arm_cc26xx_Timer_dynamicStub__E                         
0000529d  ti_sysbios_knl_Clock_stop__E                                              
000052bd  xdc_runtime_Error_policyMin__E                                            
000052dd  PIN_close                                                                 
000052fb  Power_getTransitionLatency                                                
00005319  CC1350_LAUNCHXL_initGeneral                                               
00005335  NOROM_ChipInfo_GetChipFamily                                              
00005351  NOROM_SetupGetTrimForAmpcompTh2                                           
0000536d  NOROM_SetupGetTrimForRcOscLfRtuneCtuneTrim                                
000053a5  ti_sysbios_knl_Swi_construct2__E                                          
000053c1  NOROM_AONRTCCurrentCompareValueGet                                        
000053d9  NOROM_ChipInfo_GetPackageType                                             
000053f1  NOROM_OSCHF_TurnOnXosc                                                    
00005409  NOROM_SetupGetTrimForAdcShModeEn                                          
00005421  NOROM_SetupGetTrimForAdcShVbufEn                                          
00005439  NOROM_SetupGetTrimForAmpcompTh1                                           
00005451  NOROM_SetupGetTrimForDblrLoopFilterResetVoltage                           
00005469  NOROM_SetupGetTrimForRcOscLfIBiasTrim                                     
00005481  NOROM_SetupGetTrimForXoscLfRegulatorAndCmirrwrRatio                       
00005499  PowerCC26XX_schedulerDisable                                              
000054b1  PowerCC26XX_schedulerRestore                                              
000054c9  Power_idleFunc                                                            
000054e1  _args_main                                                                
00005511  __aeabi_lmul                                                              
00005529  ti_sysbios_BIOS_rtsUnlock__I                                              
00005541  ti_sysbios_knl_Swi_or__E                                                  
00005559  ti_sysbios_rts_ti_ReentSupport_getReent__E                                
00005559  ti_sysbios_rts_ti_ReentSupport_getReent__F                                
00005571  NOROM_ThisLibraryIsFor_CC13x0_HwRev20AndLater_HaltIfViolated              
00005587  setContrast                                                               
0000559d  strchr                                                                    
000055b3  ti_sysbios_BIOS_exitFunc__I                                               
000055c9  NOROM_AONRTCCurrent64BitValueGet                                          
000055f1  strlen                                                                    
00005605  ti_sysbios_knl_Clock_doTick__I                                            
00005619  SemaphoreP_pend                                                           
0000562b  wcslen                                                                    
0000563d  xdc_runtime_Startup_exec__I                                               
0000564f  HwiP_Params_init                                                          
00005661  NOROM_SetupGetTrimForXoscHfFastStart                                      
00005671  NOROM_SetupGetTrimForXoscHfIbiastherm                                     
00005681  PINCC26XX_getPinCount                                                     
00005691  SwiP_Params_init                                                          
000056a1  NOROM_VIMSModeGet                                                         
000056af  __TI_decompress_none                                                      
000056bd  ti_sysbios_family_arm_cc26xx_TimestampProvider_get32__E                   
000056bd  xdc_runtime_Timestamp_SupportProxy_get32__E__mangled__                    
000056cb  NOROM_CPUcpsid                                                            
000056d7  NOROM_CPUcpsie                                                            
000056e3  NOROM_OSC_HPOSCRelativeFrequencyOffsetToRFCoreFormatConvert               
000056f1  Power_getConstraintMask                                                   
000056fd  Power_getDependencyCount                                                  
00005709  _register_lock                                                            
00005715  _register_unlock                                                          
00005721  copysign                                                                  
00005721  copysignl                                                                 
0000572d  __TI_zero_init                                                            
00005739  ti_sysbios_BIOS_getThreadType__E                                          
00005745  ti_sysbios_knl_Swi_getTrigger__E                                          
00005751  xdc_runtime_Startup_rtsDone__E                                            
0000575d  ClockP_Params_init                                                        
00005771  ti_sysbios_rts_ti_ReentSupport_getTlsAddr__I                              
0000577b  Board_initHook                                                            
00005783  NOROM_CPUdelay                                                            
00005789  ClockP_setTimeout                                                         
0000578d  ClockP_start                                                              
00005791  ClockP_stop                                                               
00005795  HwiP_disable                                                              
00005799  SemaphoreP_post                                                           
0000579d  SwiP_disable                                                              
000057a1  SwiP_getTrigger                                                           
000057a5  SwiP_or                                                                   
000057a9  __aeabi_errno_addr                                                        
000057b1  ti_sysbios_family_arm_cc26xx_Timer_getCount64__E                          
000057b5  xdc_runtime_Startup_reset__I                                              
00005e03  _ctypes_                                                                  
00005f04  resourceDB                                                                
00005f98  BoardGpioInitTable                                                        
00005fcc  xdc_runtime_Startup_sfxnTab__A                                            
00005ff0  PowerCC26XX_config                                                        
0000601c  xdc_runtime_Startup_sfxnRts__A                                            
0000602e  xdc_runtime_Text_charTab__A                                               
00006030  xdc_runtime_Startup_firstFxns__A                                          
00006044  PINCC26XX_hwAttrs                                                         
0000604c  ti_sysbios_knl_Idle_funcList__A                                           
00006054  ti_sysbios_family_arm_cc26xx_Timer_funcHookCH1__C                         
00006058  ti_sysbios_family_arm_cc26xx_Timer_funcHookCH2__C                         
0000605c  ti_sysbios_heaps_HeapMem_primaryHeapBaseAddr__C                           
00006060  ti_sysbios_heaps_HeapMem_primaryHeapEndAddr__C                            
00006064  ti_sysbios_knl_Clock_tickPeriod__C                                        
00006068  ti_sysbios_knl_Clock_triggerClock__C                                      
0000606c  ti_sysbios_knl_Task_Object__heap__C                                       
00006070  __TI_static_base__                                                        
00006230  __TI_Handler_Table_Base                                                   
0000623c  __TI_Handler_Table_Limit                                                  
00006278  __TI_CINIT_Base                                                           
000062d8  __TI_CINIT_Limit                                                          
0001ffa8  __ccfg                                                                    
1001a001  ti_sysbios_knl_Semaphore_pend__E                                          
1001a0cd  ti_sysbios_knl_Mailbox_Instance_init__E                                   
1001a259  ti_sysbios_knl_Task_Instance_init__E                                      
1001a315  ti_sysbios_family_arm_m3_Hwi_postInit__I                                  
1001a3c5  ti_sysbios_family_arm_m3_Hwi_Instance_init__E                             
1001a465  ti_sysbios_family_arm_cc26xx_Timer_periodicStub__E                        
1001a4f9  ti_sysbios_knl_Task_Instance_finalize__E                                  
1001a58d  ti_sysbios_knl_Mailbox_post__E                                            
1001a611  ti_sysbios_knl_Task_postInit__I                                           
1001a695  ti_sysbios_family_arm_m3_Hwi_initNVIC__E                                  
1001a715  ti_sysbios_knl_Clock_startI__E                                            
1001a791  ti_sysbios_heaps_HeapMem_free__E                                          
1001a809  ti_sysbios_knl_Clock_walkQueueDynamic__E                                  
1001a881  ti_sysbios_knl_Clock_workFunc__E                                          
1001a8f9  ti_sysbios_knl_Mailbox_Instance_finalize__E                               
1001a969  ti_sysbios_knl_Mailbox_pend__E                                            
1001a9d9  ti_sysbios_knl_Task_sleep__E                                              
1001aa49  ti_sysbios_family_arm_m3_Hwi_dispatchC__I                                 
1001aab1  ti_sysbios_family_arm_m3_Hwi_Object__create__S                            
1001ab15  ti_sysbios_family_arm_m3_Hwi_create                                       
1001ab79  ti_sysbios_hal_Hwi_create                                                 
1001abdd  ti_sysbios_knl_Mailbox_create                                             
1001ac41  ti_sysbios_knl_Semaphore_post__E                                          
1001aca5  ti_sysbios_knl_Swi_Instance_init__E                                       
1001ad05  ti_sysbios_knl_Swi_create                                                 
1001ad61  ti_sysbios_knl_Swi_restoreHwi__E                                          
1001adbd  ti_sysbios_knl_Task_Module_startup__E                                     
1001ae19  ti_sysbios_knl_Task_create                                                
1001ae75  ti_sysbios_knl_Task_startCore__E                                          
1001aed1  ti_sysbios_family_arm_m3_Hwi_Instance_finalize__E                         
1001af29  ti_sysbios_family_arm_m3_Hwi_construct                                    
1001af81  ti_sysbios_knl_Mailbox_construct                                          
1001afd9  ti_sysbios_knl_Swi_run__I                                                 
1001b031  ti_sysbios_knl_Swi_schedule__I                                            
1001b085  ti_sysbios_knl_Swi_construct                                              
1001b0d5  ti_sysbios_knl_Swi_runLoop__I                                             
1001b125  ti_sysbios_knl_Task_construct                                             
1001b175  ti_sysbios_knl_Task_schedule__I                                           
1001b1c1  ti_sysbios_family_arm_m3_Hwi_Module_startup__E                            
1001b209  ti_sysbios_heaps_HeapMem_getStats__E                                      
1001b251  ti_sysbios_family_arm_m3_Hwi_disableInterrupt__E                          
1001b251  ti_sysbios_hal_Hwi_HwiProxy_disableInterrupt__E__mangled__                
1001b295  ti_sysbios_family_arm_m3_Hwi_enableInterrupt__E                           
1001b295  ti_sysbios_hal_Hwi_HwiProxy_enableInterrupt__E__mangled__                 
1001b2d9  ti_sysbios_knl_Mailbox_Module_startup__E                                  
1001b31d  ti_sysbios_knl_Swi_post__E                                                
1001b361  ti_sysbios_knl_Task_allBlockedFunction__I                                 
1001b3a5  ti_sysbios_knl_Task_yield__E                                              
1001b3e9  ti_sysbios_knl_Clock_create                                               
1001b425  ti_sysbios_knl_Task_exit__E                                               
1001b45f  ti_sysbios_gates_GateHwi_Instance_init__E                                 
1001b461  ti_sysbios_family_arm_m3_Hwi_getStackInfo__E                              
1001b461  ti_sysbios_hal_Hwi_HwiProxy_getStackInfo__E__mangled__                    
1001b499  ti_sysbios_family_arm_m3_TaskSupport_start__E                             
1001b499  ti_sysbios_knl_Task_SupportProxy_start__E__mangled__                      
1001b4d1  ti_sysbios_heaps_HeapMem_Instance_init__E                                 
1001b509  ti_sysbios_knl_Clock_Instance_init__E                                     
1001b541  ti_sysbios_heaps_HeapMem_init__I                                          
1001b575  ti_sysbios_knl_Clock_construct                                            
1001b5a9  ti_sysbios_knl_Semaphore_create                                           
1001b5dd  SwiP_restore                                                              
1001b5dd  ti_sysbios_knl_Swi_restore__E                                             
1001b611  ti_sysbios_knl_Task_blockI__E                                             
1001b645  ti_sysbios_gates_GateMutex_Object__create__S                              
1001b675  ti_sysbios_gates_GateMutex_create                                         
1001b6a5  ti_sysbios_gates_GateMutex_enter__E                                       
1001b6d5  ClockP_getSystemTicks                                                     
1001b6d5  ti_sysbios_knl_Clock_getTicks__E                                          
1001b705  ti_sysbios_knl_Semaphore_construct                                        
1001b735  ti_sysbios_knl_Task_processVitalTaskFlag__I                               
1001b765  ti_sysbios_family_arm_cc26xx_Timer_postInit__I                            
1001b791  ti_sysbios_family_arm_cc26xx_Timer_startup__E                             
1001b791  ti_sysbios_knl_Clock_TimerProxy_startup__E                                
1001b791  ti_sysbios_knl_Clock_TimerProxy_startup__E__mangled__                     
1001b7bd  ti_sysbios_family_arm_m3_Hwi_Object__get__S                               
1001b7e9  ti_sysbios_gates_GateMutex_construct                                      
1001b815  ti_sysbios_hal_Hwi_initStack                                              
1001b841  ti_sysbios_heaps_HeapMem_Object__create__S                                
1001b86d  ti_sysbios_heaps_HeapMem_Object__get__S                                   
1001b899  ti_sysbios_knl_Mailbox_Object__get__S                                     
1001b8c5  ti_sysbios_knl_Mailbox_postInit__I                                        
1001b8f1  ti_sysbios_knl_Queue_construct                                            
1001b91d  ti_sysbios_knl_Queue_create                                               
1001b949  ti_sysbios_knl_Semaphore_pendTimeout__I                                   
1001b975  ti_sysbios_knl_Swi_Object__get__S                                         
1001b9a1  ti_sysbios_knl_Task_unblockI__E                                           
1001b9cd  ti_sysbios_family_arm_cc26xx_TimestampProvider_get64__E                   
1001b9cd  xdc_runtime_Timestamp_SupportProxy_get64__E                               
1001b9cd  xdc_runtime_Timestamp_SupportProxy_get64__E__mangled__                    
1001b9cd  xdc_runtime_Timestamp_get64__E                                            
1001b9cd  xdc_runtime_Timestamp_get64__E                                            
1001b9f5  ti_sysbios_hal_Hwi_Instance_init__E                                       
1001ba1d  ti_sysbios_knl_Clock_addI__E                                              
1001ba45  ti_sysbios_knl_Task_restore__E                                            
1001ba6d  ti_sysbios_family_arm_cc26xx_Timer_Module_startup__E                      
1001ba91  ti_sysbios_gates_GateHwi_Object__create__S                                
1001bab5  ti_sysbios_BIOS_RtsGateProxy_Object__delete__S                            
1001bab5  ti_sysbios_gates_GateMutex_Object__delete__S                              
1001bab5  ti_sysbios_heaps_HeapMem_Module_GateProxy_Object__delete__S               
1001bad9  ti_sysbios_knl_Clock_Object__delete__S                                    
1001bafd  ti_sysbios_knl_Semaphore_Instance_init__E                                 
1001bb21  ti_sysbios_knl_Semaphore_Object__delete__S                                
1001bb45  ti_sysbios_family_arm_cc26xx_Timer_Module__startupDone__S                 
1001bb45  ti_sysbios_knl_Clock_TimerProxy_Module__startupDone__S__mangled__         
1001bb65  ti_sysbios_family_arm_cc26xx_TimestampProvider_Module_startup__E          
1001bb85  ti_sysbios_family_arm_m3_Hwi_Module__startupDone__S                       
1001bb85  ti_sysbios_hal_Hwi_HwiProxy_Module__startupDone__S__mangled__             
1001bba5  ti_sysbios_family_arm_m3_Hwi_Object__delete__S                            
1001bba5  ti_sysbios_hal_Hwi_HwiProxy_Object__delete__S                             
1001bbc5  ti_sysbios_family_arm_m3_Hwi_excHandler__I                                
1001bbe5  ti_sysbios_gates_GateHwi_Handle__label__S                                 
1001bbe5  xdc_runtime_Main_Module_GateProxy_Handle__label__S                        
1001bbe5  xdc_runtime_System_Module_GateProxy_Handle__label__S                      
1001bbe5  xdc_runtime_System_Module_GateProxy_Handle__label__S__mangled__           
1001bc05  ti_sysbios_gates_GateHwi_Object__delete__S                                
1001bc05  xdc_runtime_System_Module_GateProxy_Object__delete__S                     
1001bc25  ti_sysbios_BIOS_RtsGateProxy_Handle__label__S                             
1001bc25  ti_sysbios_BIOS_RtsGateProxy_Handle__label__S__mangled__                  
1001bc25  ti_sysbios_gates_GateMutex_Handle__label__S                               
1001bc25  ti_sysbios_heaps_HeapMem_Module_GateProxy_Handle__label__S                
1001bc25  ti_sysbios_heaps_HeapMem_Module_GateProxy_Handle__label__S__mangled__     
1001bc45  ti_sysbios_gates_GateMutex_Object__destruct__S                            
1001bc65  ti_sysbios_hal_Hwi_Object__delete__S                                      
1001bc85  ti_sysbios_heaps_HeapMem_Handle__label__S                                 
1001bc85  xdc_runtime_Memory_HeapProxy_Handle__label__S                             
1001bc85  xdc_runtime_Memory_HeapProxy_Handle__label__S__mangled__                  
1001bca5  ti_sysbios_heaps_HeapMem_Object__delete__S                                
1001bca5  xdc_runtime_Memory_HeapProxy_Object__delete__S                            
1001bcc5  ti_sysbios_knl_Clock_Module_startup__E                                    
1001bce5  ti_sysbios_knl_Clock_Object__destruct__S                                  
1001bd05  ti_sysbios_knl_Idle_run__E                                                
1001bd25  ti_sysbios_knl_Mailbox_Object__delete__S                                  
1001bd45  ti_sysbios_knl_Queue_Object__delete__S                                    
1001bd65  ti_sysbios_knl_Queue_Object__get__S                                       
1001bd85  ti_sysbios_knl_Semaphore_Object__destruct__S                              
1001bda5  ti_sysbios_knl_Swi_Object__delete__S                                      
1001bdc5  ti_sysbios_knl_Task_Object__delete__S                                     
1001bde5  ti_sysbios_knl_Task_Object__get__S                                        
1001be05  ti_sysbios_knl_Task_enter__I                                              
1001be25  ti_sysbios_knl_Task_restoreHwi__E                                         
1001be45  ti_sysbios_hal_Hwi_HwiProxy_create                                        
1001be63  ti_sysbios_knl_Clock_logTick__E                                           
1001be65  ti_sysbios_family_arm_m3_Hwi_Object__destruct__S                          
1001be81  ti_sysbios_family_arm_m3_Hwi_setPriority__E                               
1001be9d  ti_sysbios_gates_GateMutex_Instance_init__E                               
1001beb9  ti_sysbios_knl_Clock_scheduleNextTick__E                                  
1001bed5  ti_sysbios_knl_Mailbox_Object__destruct__S                                
1001bef1  ti_sysbios_knl_Queue_Object__destruct__S                                  
1001bf0d  ti_sysbios_knl_Queue_get__E                                               
1001bf29  ti_sysbios_knl_Queue_put__E                                               
1001bf45  ti_sysbios_knl_Swi_Object__destruct__S                                    
1001bf61  ti_sysbios_knl_Task_Object__destruct__S                                   
1001bf7d  ti_sysbios_knl_Task_sleepTimeout__I                                       
1001bf97  ti_sysbios_knl_Swi_Instance_finalize__E                                   
1001bf99  ti_sysbios_gates_GateMutex_leave__E                                       
1001bfb1  ti_sysbios_knl_Task_unblock__E                                            
1001bfc9  ti_sysbios_knl_Clock_Instance_finalize__E                                 
1001bfdf  ti_sysbios_knl_Clock_start__E                                             
1001bff5  ti_sysbios_BIOS_getCpuFreq__E                                             
1001c009  ti_sysbios_family_arm_m3_Hwi_switchFromBootStack__E                       
1001c009  ti_sysbios_hal_Hwi_HwiProxy_switchFromBootStack__E__mangled__             
1001c01d  ti_sysbios_hal_Hwi_Module_startup__E                                      
1001c031  ti_sysbios_BIOS_exit__E                                                   
1001c041  ti_sysbios_BIOS_setThreadType__E                                          
1001c051  ti_sysbios_BIOS_start__E                                                  
1001c061  ti_sysbios_family_arm_m3_Hwi_plug__E                                      
1001c071  ti_sysbios_gates_GateMutex_Instance_finalize__E                           
1001c081  ti_sysbios_hal_Hwi_HwiProxy_Object__create__S                             
1001c091  ti_sysbios_knl_Clock_TimerProxy_getCurrentTick__E                         
1001c0a1  ti_sysbios_knl_Clock_TimerProxy_getMaxTicks__E                            
1001c0b1  ti_sysbios_knl_Clock_TimerProxy_setNextTick__E                            
1001c0c1  ti_sysbios_knl_Semaphore_Instance_finalize__E                             
1001c0d1  ti_sysbios_knl_Swi_disable__E                                             
1001c0e1  ti_sysbios_knl_Swi_enabled__E                                             
1001c0f1  ti_sysbios_knl_Task_disable__E                                            
1001c101  ti_sysbios_heaps_HeapMem_restore__E                                       
1001c10f  ti_sysbios_knl_Queue_empty__E                                             
1001c11d  ti_sysbios_knl_Queue_remove__E                                            
1001c12b  ti_sysbios_family_arm_cc26xx_TimestampProvider_getFreq__E                 
1001c12b  xdc_runtime_Timestamp_SupportProxy_getFreq__E                             
1001c12b  xdc_runtime_Timestamp_SupportProxy_getFreq__E__mangled__                  
1001c12b  xdc_runtime_Timestamp_getFreq__E                                          
1001c12b  xdc_runtime_Timestamp_getFreq__E                                          
1001c139  ti_sysbios_family_arm_m3_Hwi_Params__init__S                              
1001c139  ti_sysbios_hal_Hwi_HwiProxy_Params__init__S                               
1001c139  ti_sysbios_hal_Hwi_HwiProxy_Params__init__S__mangled__                    
1001c145  ti_sysbios_family_arm_m3_Hwi_disableFxn__E                                
1001c151  ti_sysbios_family_arm_m3_Hwi_enableFxn__E                                 
1001c15d  ti_sysbios_family_arm_m3_TaskSupport_getStackAlignment__E                 
1001c15d  ti_sysbios_knl_Task_SupportProxy_getStackAlignment__E__mangled__          
1001c169  ti_sysbios_gates_GateHwi_enter__E                                         
1001c175  ti_sysbios_BIOS_RtsGateProxy_Params__init__S                              
1001c175  ti_sysbios_BIOS_RtsGateProxy_Params__init__S__mangled__                   
1001c175  ti_sysbios_gates_GateMutex_Params__init__S                                
1001c175  ti_sysbios_heaps_HeapMem_Module_GateProxy_Params__init__S                 
1001c175  ti_sysbios_heaps_HeapMem_Module_GateProxy_Params__init__S__mangled__      
1001c181  ti_sysbios_knl_Clock_Params__init__S                                      
1001c18d  ti_sysbios_knl_Clock_getTimerHandle__E                                    
1001c199  ti_sysbios_knl_Mailbox_Params__init__S                                    
1001c1a5  ti_sysbios_knl_Queue_dequeue__E                                           
1001c1b1  ti_sysbios_knl_Queue_enqueue__E                                           
1001c1bd  ti_sysbios_knl_Semaphore_Params__init__S                                  
1001c1c9  ti_sysbios_knl_Swi_Params__init__S                                        
1001c1d5  ti_sysbios_knl_Task_Params__init__S                                       
1001c1e1  ti_sysbios_knl_Task_self__E                                               
1001c1ed  ti_sysbios_hal_Hwi_Instance_finalize__E                                   
1001c1f7  ti_sysbios_family_arm_m3_Hwi_doSwiRestore__I                              
1001c1ff  ti_sysbios_family_arm_m3_Hwi_startup__E                                   
1001c1ff  ti_sysbios_hal_Hwi_HwiProxy_startup__E__mangled__                         
1001c207  ti_sysbios_knl_Idle_loop__E                                               
1001c20f  ti_sysbios_family_arm_m3_Hwi_doTaskRestore__I                             
1001c215  HwiP_restore                                                              
1001c215  ti_sysbios_family_arm_m3_Hwi_restoreFxn__E                                
1001c21b  ti_sysbios_gates_GateHwi_leave__E                                         
1001c227  ti_sysbios_knl_Queue_Instance_init__E                                     
1001c22d  ti_sysbios_knl_Queue_elemClear__E                                         
1001c233  ti_sysbios_knl_Swi_Module_startup__E                                      
1001c239  ti_sysbios_knl_Swi_startup__E                                             
1001c23f  ti_sysbios_knl_Task_enable__E                                             
1001c245  ti_sysbios_BIOS_RtsGateProxy_enter__E                                     
1001c249  ti_sysbios_BIOS_RtsGateProxy_leave__E                                     
1001c24d  ti_sysbios_family_arm_cc26xx_Timer_getExpiredTicks__E                     
1001c251  ti_sysbios_family_arm_cc26xx_Timer_getPeriod__E                           
1001c255  ti_sysbios_family_arm_cc26xx_Timer_setPeriod__E                           
1001c259  ti_sysbios_family_arm_m3_Hwi_delete                                       
1001c25d  ti_sysbios_family_arm_m3_Hwi_destruct                                     
1001c261  ti_sysbios_family_arm_m3_TaskSupport_Module__startupDone__S               
1001c261  ti_sysbios_knl_Task_SupportProxy_Module__startupDone__S__mangled__        
1001c265  ti_sysbios_gates_GateHwi_query__E                                         
1001c265  xdc_runtime_Main_Module_GateProxy_query__E                                
1001c265  xdc_runtime_System_Module_GateProxy_query__E                              
1001c265  xdc_runtime_System_Module_GateProxy_query__E__mangled__                   
1001c269  ti_sysbios_gates_GateMutex_delete                                         
1001c26d  ti_sysbios_gates_GateMutex_destruct                                       
1001c271  ti_sysbios_BIOS_RtsGateProxy_query__E                                     
1001c271  ti_sysbios_BIOS_RtsGateProxy_query__E__mangled__                          
1001c271  ti_sysbios_gates_GateMutex_query__E                                       
1001c271  ti_sysbios_heaps_HeapMem_Module_GateProxy_query__E                        
1001c271  ti_sysbios_heaps_HeapMem_Module_GateProxy_query__E__mangled__             
1001c275  ti_sysbios_hal_Hwi_HwiProxy_Module__startupDone__S                        
1001c279  ti_sysbios_hal_Hwi_HwiProxy_delete                                        
1001c27d  ti_sysbios_hal_Hwi_HwiProxy_disableInterrupt__E                           
1001c27d  ti_sysbios_hal_Hwi_disableInterrupt__E                                    
1001c27d  ti_sysbios_hal_Hwi_disableInterrupt__E                                    
1001c281  ti_sysbios_hal_Hwi_HwiProxy_enableInterrupt__E                            
1001c281  ti_sysbios_hal_Hwi_enableInterrupt__E                                     
1001c281  ti_sysbios_hal_Hwi_enableInterrupt__E                                     
1001c285  ti_sysbios_hal_Hwi_HwiProxy_getStackInfo__E                               
1001c285  ti_sysbios_hal_Hwi_getStackInfo__E                                        
1001c285  ti_sysbios_hal_Hwi_getStackInfo__E                                        
1001c289  ti_sysbios_hal_Hwi_HwiProxy_startup__E                                    
1001c289  ti_sysbios_hal_Hwi_startup__E                                             
1001c289  ti_sysbios_hal_Hwi_startup__E                                             
1001c28d  ti_sysbios_hal_Hwi_HwiProxy_switchFromBootStack__E                        
1001c291  ti_sysbios_hal_Hwi_delete                                                 
1001c295  ti_sysbios_hal_Hwi_switchFromBootStack__E                                 
1001c295  ti_sysbios_hal_Hwi_switchFromBootStack__E                                 
1001c299  ti_sysbios_heaps_HeapMem_Module_GateProxy_enter__E                        
1001c29d  ti_sysbios_heaps_HeapMem_Module_GateProxy_leave__E                        
1001c2a1  ti_sysbios_heaps_HeapMem_isBlocking__E                                    
1001c2a5  ti_sysbios_knl_Clock_TimerProxy_Module__startupDone__S                    
1001c2a9  ti_sysbios_knl_Clock_TimerProxy_getExpiredTicks__E                        
1001c2ad  ti_sysbios_knl_Clock_TimerProxy_getPeriod__E                              
1001c2b1  ti_sysbios_knl_Clock_delete                                               
1001c2b5  ti_sysbios_knl_Clock_destruct                                             
1001c2b9  ti_sysbios_knl_Clock_removeI__E                                           
1001c2bd  ti_sysbios_knl_Clock_setTimeout__E                                        
1001c2c1  ti_sysbios_knl_Mailbox_delete                                             
1001c2c5  ti_sysbios_knl_Mailbox_destruct                                           
1001c2c9  ti_sysbios_knl_Queue_delete                                               
1001c2cd  ti_sysbios_knl_Queue_destruct                                             
1001c2d1  ti_sysbios_knl_Queue_head__E                                              
1001c2d5  ti_sysbios_knl_Queue_next__E                                              
1001c2d9  ti_sysbios_knl_Semaphore_delete                                           
1001c2dd  ti_sysbios_knl_Semaphore_destruct                                         
1001c2e1  ti_sysbios_knl_Swi_delete                                                 
1001c2e5  ti_sysbios_knl_Swi_destruct                                               
1001c2e9  ti_sysbios_knl_Swi_postInit__I                                            
1001c2ed  ti_sysbios_knl_Task_SupportProxy_Module__startupDone__S                   
1001c2f1  ti_sysbios_knl_Task_SupportProxy_getStackAlignment__E                     
1001c2f5  ti_sysbios_knl_Task_SupportProxy_start__E                                 
1001c2f9  ti_sysbios_knl_Task_SupportProxy_swap__E                                  
1001c2fd  ti_sysbios_knl_Task_delete                                                
1001c301  ti_sysbios_knl_Task_destruct                                              
1001c305  ti_sysbios_knl_Task_startup__E                                            
1001c309  xdc_runtime_Startup_startMods__I                                          
1001c401  xdc_runtime_Core_createObject__I                                          
1001c483  xdc_runtime_Error_policySpin__E                                           
1001c485  xdc_runtime_Memory_alloc__E                                               
1001c4f5  xdc_runtime_Core_deleteObject__I                                          
1001c555  xdc_runtime_Startup_exec__E                                               
1001c5a5  xdc_runtime_Assert_raise__I                                               
1001c5ed  xdc_runtime_Core_assignParams__I                                          
1001c635  xdc_runtime_Core_constructObject__I                                       
1001c67d  xdc_runtime_System_atexit__E                                              
1001c6b5  xdc_runtime_System_processAtExit__E                                       
1001c6e9  xdc_runtime_Core_assignLabel__I                                           
1001c719  xdc_runtime_Text_cordText__E                                              
1001c745  xdc_runtime_System_abort__E                                               
1001c765  xdc_runtime_Error_raiseX__E                                               
1001c781  xdc_runtime_Memory_valloc__E                                              
1001c79d  xdc_runtime_Core_destructObject__I                                        
1001c7b5  xdc_runtime_Error_check__E                                                
1001c7cd  xdc_runtime_System_exit__E                                                
1001c7e5  xdc_runtime_Text_ropeText__E                                              
1001c7fd  xdc_runtime_Memory_free__E                                                
1001c80d  xdc_runtime_SysCallback_abort__E                                          
1001c80d  xdc_runtime_System_SupportProxy_abort__E                                  
1001c81d  xdc_runtime_SysCallback_exit__E                                           
1001c81d  xdc_runtime_System_SupportProxy_exit__E                                   
1001c82d  xdc_runtime_Timestamp_SupportProxy_get32__E                               
1001c82d  xdc_runtime_Timestamp_get32__E                                            
1001c82d  xdc_runtime_Timestamp_get32__E                                            
1001c849  xdc_runtime_Memory_calloc__E                                              
1001c855  xdc_runtime_Memory_getMaxDefaultTypeAlign__E                              
1001c875  xdc_runtime_Gate_leaveSystem__E                                           
1001c87b  xdc_runtime_System_Module_startup__E                                      
1001c881  xdc_runtime_Gate_enterSystem__E                                           
1001c885  xdc_runtime_Memory_HeapProxy_alloc__E                                     
1001c889  xdc_runtime_Memory_HeapProxy_free__E                                      
1001c88d  xdc_runtime_System_Module_GateProxy_enter__E                              
1001c891  xdc_runtime_System_Module_GateProxy_leave__E                              
1001c895  xdc_runtime_System_abortSpin__E                                           
1001c897  xdc_runtime_System_exitSpin__E                                            
1001c899  ti_sysbios_family_arm_m3_Hwi_dispatch__I                                  
1001c969  ti_sysbios_family_arm_m3_TaskSupport_buildTaskStack                       
1001c9b5  ti_sysbios_family_arm_m3_Hwi_initStacks__E                                
1001c9fd  ti_sysbios_family_arm_m3_Hwi_excHandlerAsm__I                             
1001ca1d  ti_sysbios_family_xxx_Hwi_switchAndRunFunc                                
1001ca3b  ti_sysbios_family_arm_m3_Hwi_pendSV__I                                    
1001ca53  ti_sysbios_family_arm_m3_Hwi_return                                       
1001ca55  ti_sysbios_family_arm_m3_TaskSupport_glue                                 
1001ca65  ti_sysbios_family_arm_m3_TaskSupport_swap__E                              
1001ca65  ti_sysbios_knl_Task_SupportProxy_swap__E__mangled__                       
1001ca6d  ti_sysbios_knl_Task_swapReturn                                            
1001ca97  ti_sysbios_rom_cortexm_cc13xx_CC13xx_getRevision__E                       
20000000  __start___llvm_prf_cnts                                                   
20000000  __stop___llvm_prf_cnts                                                    
20000000  ti_sysbios_family_arm_m3_Hwi_ramVectors                                   
20000100  ti_sysbios_knl_Task_Module__state__V                                      
20000144  ti_sysbios_family_arm_m3_Hwi_Module__state__V                             
20000178  ti_sysbios_knl_Clock_Module__state__V                                     
200001a4  ti_sysbios_BIOS_Module__state__V                                          
200001c8  ti_sysbios_knl_Swi_Module__state__V                                       
200001e4  ti_sysbios_family_arm_cc26xx_Timer_Module__state__V                       
200001ec  ti_sysbios_family_arm_cc26xx_TimestampProvider_Module__state__V           
200001f0  xdc_runtime_Startup_Module__state__V                                      
200001f8  xdc_runtime_System_Module__state__V                                       
20000200  xdc_runtime_Memory_Module__state__V                                       
20000208  buffer                                                                    
20002208  ti_sysbios_knl_Task_Instance_State_0_stack__A                             
20002408  ti_sysbios_family_arm_m3_Hwi_dispatchTable                                
200024f0  PowerCC26XX_taskKey                                                       
200024f4  PowerCC26XX_swiKey                                                        
20002500  i                                                                         
2000250c  ClockP_tickPeriod                                                         
20002510  driverlib_release_0_3_05_20_00001                                         
20002518  __primary_heap_start__                                                    
20003518  __primary_heap_end__                                                      
20003518  pinUpperBound                                                             
2000351c  pinLowerBound                                                             
200035b0  pinHandleTable                                                            
2000362c  PowerCC26XX_module                                                        
200037c8  ti_sysbios_gates_GateMutex_Object__table__V                               
2000381c  ti_sysbios_knl_Task_Object__table__V                                      
20003868  ti_sysbios_family_arm_cc26xx_Timer_Object__table__V                       
200038b0  ti_sysbios_knl_Swi_Module_State_0_readyQ__A                               
200038e0  ti_sysbios_knl_Swi_Object__table__V                                       
20003910  ti_sysbios_knl_Task_Module_State_0_readyQ__A                              
20003940  PinTable                                                                  
20003960  ti_sysbios_knl_Clock_Object__table__V                                     
20003980  xdc_runtime_Error_IgnoreBlock                                             
200039a0  ti_sysbios_family_arm_m3_Hwi_Object__table__V                             
200039b8  ti_sysbios_heaps_HeapMem_Object__table__V                                 
200039d0  _lock                                                                     
200039d4  _unlock                                                                   
200039d8  ti_sysbios_family_arm_m3_Hwi_Module__root__V                              
200039e0  ti_sysbios_gates_GateHwi_Module__root__V                                  
200039e8  ti_sysbios_gates_GateMutex_Module__root__V                                
200039f0  ti_sysbios_hal_Hwi_Module__root__V                                        
200039f8  ti_sysbios_heaps_HeapMem_Module__root__V                                  
20003a00  ti_sysbios_knl_Clock_Module__root__V                                      
20003a08  ti_sysbios_knl_Mailbox_Module__root__V                                    
20003a10  ti_sysbios_knl_Queue_Module__root__V                                      
20003a18  ti_sysbios_knl_Semaphore_Module__root__V                                  
20003a20  ti_sysbios_knl_Swi_Module__root__V                                        
20003a28  ti_sysbios_knl_Task_Module__root__V                                       
20003a30  xdc_runtime_System_Module_State_0_atexitHandlers__A                       
20003a38  main_func_sp                                                              
20003a3c  ti_sysbios_family_arm_m3_Hwi_Module_State_0_excContext__A                 
20003a40  ti_sysbios_family_arm_m3_Hwi_Module_State_0_excStack__A                   
20003a44  ti_sysbios_knl_Task_Module_State_0_idleTask__A                            
20003a48  ti_sysbios_family_arm_m3_Hwi_Module_State_0_excActive__A                  
20004c00  __stack                                                                   
20005000  __STACK_END                                                               
e000e000  ti_sysbios_family_arm_m3_Hwi_nvic                                         
ffffffff  __TI_pprof_out_hndl                                                       
ffffffff  __TI_prof_data_size                                                       
ffffffff  __TI_prof_data_start                                                      
ffffffff  __binit__                                                                 
ffffffff  __c_args__                                                                
ffffffff  binit                                                                     
UNDEFED   SHT$$INIT_ARRAY$$Base                                                     
UNDEFED   SHT$$INIT_ARRAY$$Limit                                                    

[767 symbols]
